
avr.elf:     file format elf32-avr

Sections:
Idx Name          Size      VMA       LMA       File off  Algn
  0 .data         00000000  00800100  00800100  000002f2  2**0
                  CONTENTS, ALLOC, LOAD, DATA
  1 .text         0000027e  00000000  00000000  00000074  2**1
                  CONTENTS, ALLOC, LOAD, READONLY, CODE
  2 .bss          00000007  00800100  00800100  000002f2  2**0
                  ALLOC
  3 .comment      00000011  00000000  00000000  000002f2  2**0
                  CONTENTS, READONLY
  4 .note.gnu.avr.deviceinfo 00000040  00000000  00000000  00000304  2**2
                  CONTENTS, READONLY
  5 .debug_aranges 000000c8  00000000  00000000  00000344  2**0
                  CONTENTS, READONLY, DEBUGGING
  6 .debug_info   00000d62  00000000  00000000  0000040c  2**0
                  CONTENTS, READONLY, DEBUGGING
  7 .debug_abbrev 000009c6  00000000  00000000  0000116e  2**0
                  CONTENTS, READONLY, DEBUGGING
  8 .debug_line   000008af  00000000  00000000  00001b34  2**0
                  CONTENTS, READONLY, DEBUGGING
  9 .debug_frame  00000230  00000000  00000000  000023e4  2**2
                  CONTENTS, READONLY, DEBUGGING
 10 .debug_str    0000069c  00000000  00000000  00002614  2**0
                  CONTENTS, READONLY, DEBUGGING
 11 .debug_loc    000003dd  00000000  00000000  00002cb0  2**0
                  CONTENTS, READONLY, DEBUGGING
 12 .debug_ranges 00000098  00000000  00000000  0000308d  2**0
                  CONTENTS, READONLY, DEBUGGING

Disassembly of section .text:

00000000 <__vectors>:
   0:	37 c0       	rjmp	.+110    	; 0x70 <__ctors_end>
   2:	00 00       	nop
   4:	50 c0       	rjmp	.+160    	; 0xa6 <__bad_interrupt>
   6:	00 00       	nop
   8:	4e c0       	rjmp	.+156    	; 0xa6 <__bad_interrupt>
   a:	00 00       	nop
   c:	4c c0       	rjmp	.+152    	; 0xa6 <__bad_interrupt>
   e:	00 00       	nop
  10:	4a c0       	rjmp	.+148    	; 0xa6 <__bad_interrupt>
  12:	00 00       	nop
  14:	48 c0       	rjmp	.+144    	; 0xa6 <__bad_interrupt>
  16:	00 00       	nop
  18:	46 c0       	rjmp	.+140    	; 0xa6 <__bad_interrupt>
  1a:	00 00       	nop
  1c:	44 c0       	rjmp	.+136    	; 0xa6 <__bad_interrupt>
  1e:	00 00       	nop
  20:	42 c0       	rjmp	.+132    	; 0xa6 <__bad_interrupt>
  22:	00 00       	nop
  24:	40 c0       	rjmp	.+128    	; 0xa6 <__bad_interrupt>
  26:	00 00       	nop
  28:	3e c0       	rjmp	.+124    	; 0xa6 <__bad_interrupt>
  2a:	00 00       	nop
  2c:	3c c0       	rjmp	.+120    	; 0xa6 <__bad_interrupt>
  2e:	00 00       	nop
  30:	3a c0       	rjmp	.+116    	; 0xa6 <__bad_interrupt>
  32:	00 00       	nop
  34:	38 c0       	rjmp	.+112    	; 0xa6 <__bad_interrupt>
  36:	00 00       	nop
  38:	36 c0       	rjmp	.+108    	; 0xa6 <__bad_interrupt>
  3a:	00 00       	nop
  3c:	34 c0       	rjmp	.+104    	; 0xa6 <__bad_interrupt>
  3e:	00 00       	nop
  40:	32 c0       	rjmp	.+100    	; 0xa6 <__bad_interrupt>
  42:	00 00       	nop
  44:	30 c0       	rjmp	.+96     	; 0xa6 <__bad_interrupt>
  46:	00 00       	nop
  48:	2e c0       	rjmp	.+92     	; 0xa6 <__bad_interrupt>
  4a:	00 00       	nop
  4c:	2c c0       	rjmp	.+88     	; 0xa6 <__bad_interrupt>
  4e:	00 00       	nop
  50:	2a c0       	rjmp	.+84     	; 0xa6 <__bad_interrupt>
  52:	00 00       	nop
  54:	28 c0       	rjmp	.+80     	; 0xa6 <__bad_interrupt>
  56:	00 00       	nop
  58:	26 c0       	rjmp	.+76     	; 0xa6 <__bad_interrupt>
  5a:	00 00       	nop
  5c:	24 c0       	rjmp	.+72     	; 0xa6 <__bad_interrupt>
  5e:	00 00       	nop
  60:	22 c0       	rjmp	.+68     	; 0xa6 <__bad_interrupt>
  62:	00 00       	nop
  64:	20 c0       	rjmp	.+64     	; 0xa6 <__bad_interrupt>
  66:	00 00       	nop
  68:	1e c0       	rjmp	.+60     	; 0xa6 <__bad_interrupt>
  6a:	00 00       	nop
  6c:	1c c0       	rjmp	.+56     	; 0xa6 <__bad_interrupt>
	...

00000070 <__ctors_end>:
  70:	11 24       	eor	r1, r1
  72:	1f be       	out	0x3f, r1	; 63
  74:	cf ef       	ldi	r28, 0xFF	; 255
  76:	d4 e0       	ldi	r29, 0x04	; 4
  78:	de bf       	out	0x3e, r29	; 62
  7a:	cd bf       	out	0x3d, r28	; 61

0000007c <__do_copy_data>:
  7c:	11 e0       	ldi	r17, 0x01	; 1
  7e:	a0 e0       	ldi	r26, 0x00	; 0
  80:	b1 e0       	ldi	r27, 0x01	; 1
  82:	ee e7       	ldi	r30, 0x7E	; 126
  84:	f2 e0       	ldi	r31, 0x02	; 2
  86:	02 c0       	rjmp	.+4      	; 0x8c <__do_copy_data+0x10>
  88:	05 90       	lpm	r0, Z+
  8a:	0d 92       	st	X+, r0
  8c:	a0 30       	cpi	r26, 0x00	; 0
  8e:	b1 07       	cpc	r27, r17
  90:	d9 f7       	brne	.-10     	; 0x88 <__do_copy_data+0xc>

00000092 <__do_clear_bss>:
  92:	21 e0       	ldi	r18, 0x01	; 1
  94:	a0 e0       	ldi	r26, 0x00	; 0
  96:	b1 e0       	ldi	r27, 0x01	; 1
  98:	01 c0       	rjmp	.+2      	; 0x9c <.do_clear_bss_start>

0000009a <.do_clear_bss_loop>:
  9a:	1d 92       	st	X+, r1

0000009c <.do_clear_bss_start>:
  9c:	a7 30       	cpi	r26, 0x07	; 7
  9e:	b2 07       	cpc	r27, r18
  a0:	e1 f7       	brne	.-8      	; 0x9a <.do_clear_bss_loop>
  a2:	0e d0       	rcall	.+28     	; 0xc0 <main>
  a4:	ea c0       	rjmp	.+468    	; 0x27a <_exit>

000000a6 <__bad_interrupt>:
  a6:	e7 c0       	rjmp	.+462    	; 0x276 <__vector_default>

000000a8 <EE_currentSP>:
  a8:	cf 93       	push	r28
  aa:	df 93       	push	r29
  ac:	cd b7       	in	r28, 0x3d	; 61
  ae:	de b7       	in	r29, 0x3e	; 62
  b0:	8d e5       	ldi	r24, 0x5D	; 93
  b2:	90 e0       	ldi	r25, 0x00	; 0
  b4:	fc 01       	movw	r30, r24
  b6:	80 81       	ld	r24, Z
  b8:	91 81       	ldd	r25, Z+1	; 0x01
  ba:	df 91       	pop	r29
  bc:	cf 91       	pop	r28
  be:	08 95       	ret

000000c0 <main>:
  c0:	cf 93       	push	r28
  c2:	df 93       	push	r29
  c4:	00 d0       	rcall	.+0      	; 0xc6 <main+0x6>
  c6:	cd b7       	in	r28, 0x3d	; 61
  c8:	de b7       	in	r29, 0x3e	; 62
  ca:	4f ef       	ldi	r20, 0xFF	; 255
  cc:	61 e0       	ldi	r22, 0x01	; 1
  ce:	70 e0       	ldi	r23, 0x00	; 0
  d0:	81 e0       	ldi	r24, 0x01	; 1
  d2:	2d d0       	rcall	.+90     	; 0x12e <EE_assert>
  d4:	41 e0       	ldi	r20, 0x01	; 1
  d6:	61 e0       	ldi	r22, 0x01	; 1
  d8:	80 e0       	ldi	r24, 0x00	; 0
  da:	8b d0       	rcall	.+278    	; 0x1f2 <EE_assert_range>
  dc:	c3 d0       	rcall	.+390    	; 0x264 <EE_assert_last>
  de:	80 93 06 01 	sts	0x0106, r24	; 0x800106 <result>
  e2:	1b c0       	rjmp	.+54     	; 0x11a <main+0x5a>
  e4:	e1 df       	rcall	.-62     	; 0xa8 <EE_currentSP>
  e6:	9a 83       	std	Y+2, r25	; 0x02
  e8:	89 83       	std	Y+1, r24	; 0x01
  ea:	20 91 02 01 	lds	r18, 0x0102	; 0x800102 <main_sp>
  ee:	30 91 03 01 	lds	r19, 0x0103	; 0x800103 <main_sp+0x1>
  f2:	89 81       	ldd	r24, Y+1	; 0x01
  f4:	9a 81       	ldd	r25, Y+2	; 0x02
  f6:	28 17       	cp	r18, r24
  f8:	39 07       	cpc	r19, r25
  fa:	31 f0       	breq	.+12     	; 0x108 <main+0x48>
  fc:	89 81       	ldd	r24, Y+1	; 0x01
  fe:	9a 81       	ldd	r25, Y+2	; 0x02
 100:	90 93 03 01 	sts	0x0103, r25	; 0x800103 <main_sp+0x1>
 104:	80 93 02 01 	sts	0x0102, r24	; 0x800102 <main_sp>
 108:	80 91 00 01 	lds	r24, 0x0100	; 0x800100 <__data_end>
 10c:	90 91 01 01 	lds	r25, 0x0101	; 0x800101 <__data_end+0x1>
 110:	01 96       	adiw	r24, 0x01	; 1
 112:	90 93 01 01 	sts	0x0101, r25	; 0x800101 <__data_end+0x1>
 116:	80 93 00 01 	sts	0x0100, r24	; 0x800100 <__data_end>
 11a:	80 91 06 01 	lds	r24, 0x0106	; 0x800106 <result>
 11e:	81 30       	cpi	r24, 0x01	; 1
 120:	09 f3       	breq	.-62     	; 0xe4 <main+0x24>
 122:	00 00       	nop
 124:	0f 90       	pop	r0
 126:	0f 90       	pop	r0
 128:	df 91       	pop	r29
 12a:	cf 91       	pop	r28
 12c:	08 95       	ret

0000012e <EE_assert>:
 12e:	cf 93       	push	r28
 130:	df 93       	push	r29
 132:	00 d0       	rcall	.+0      	; 0x134 <EE_assert+0x6>
 134:	00 d0       	rcall	.+0      	; 0x136 <EE_assert+0x8>
 136:	cd b7       	in	r28, 0x3d	; 61
 138:	de b7       	in	r29, 0x3e	; 62
 13a:	89 83       	std	Y+1, r24	; 0x01
 13c:	7b 83       	std	Y+3, r23	; 0x03
 13e:	6a 83       	std	Y+2, r22	; 0x02
 140:	4c 83       	std	Y+4, r20	; 0x04
 142:	89 81       	ldd	r24, Y+1	; 0x01
 144:	08 2e       	mov	r0, r24
 146:	00 0c       	add	r0, r0
 148:	99 0b       	sbc	r25, r25
 14a:	8c 5f       	subi	r24, 0xFC	; 252
 14c:	9e 4f       	sbci	r25, 0xFE	; 254
 14e:	fc 01       	movw	r30, r24
 150:	80 81       	ld	r24, Z
 152:	88 23       	and	r24, r24
 154:	59 f0       	breq	.+22     	; 0x16c <EE_assert+0x3e>
 156:	89 81       	ldd	r24, Y+1	; 0x01
 158:	08 2e       	mov	r0, r24
 15a:	00 0c       	add	r0, r0
 15c:	99 0b       	sbc	r25, r25
 15e:	8c 5f       	subi	r24, 0xFC	; 252
 160:	9e 4f       	sbci	r25, 0xFE	; 254
 162:	23 e0       	ldi	r18, 0x03	; 3
 164:	fc 01       	movw	r30, r24
 166:	20 83       	st	Z, r18
 168:	83 e0       	ldi	r24, 0x03	; 3
 16a:	3c c0       	rjmp	.+120    	; 0x1e4 <EE_assert+0xb6>
 16c:	8a 81       	ldd	r24, Y+2	; 0x02
 16e:	9b 81       	ldd	r25, Y+3	; 0x03
 170:	89 2b       	or	r24, r25
 172:	71 f1       	breq	.+92     	; 0x1d0 <EE_assert+0xa2>
 174:	8c 81       	ldd	r24, Y+4	; 0x04
 176:	8f 3f       	cpi	r24, 0xFF	; 255
 178:	01 f1       	breq	.+64     	; 0x1ba <EE_assert+0x8c>
 17a:	8c 81       	ldd	r24, Y+4	; 0x04
 17c:	08 2e       	mov	r0, r24
 17e:	00 0c       	add	r0, r0
 180:	99 0b       	sbc	r25, r25
 182:	8c 5f       	subi	r24, 0xFC	; 252
 184:	9e 4f       	sbci	r25, 0xFE	; 254
 186:	fc 01       	movw	r30, r24
 188:	80 81       	ld	r24, Z
 18a:	81 30       	cpi	r24, 0x01	; 1
 18c:	59 f4       	brne	.+22     	; 0x1a4 <EE_assert+0x76>
 18e:	89 81       	ldd	r24, Y+1	; 0x01
 190:	08 2e       	mov	r0, r24
 192:	00 0c       	add	r0, r0
 194:	99 0b       	sbc	r25, r25
 196:	8c 5f       	subi	r24, 0xFC	; 252
 198:	9e 4f       	sbci	r25, 0xFE	; 254
 19a:	21 e0       	ldi	r18, 0x01	; 1
 19c:	fc 01       	movw	r30, r24
 19e:	20 83       	st	Z, r18
 1a0:	81 e0       	ldi	r24, 0x01	; 1
 1a2:	20 c0       	rjmp	.+64     	; 0x1e4 <EE_assert+0xb6>
 1a4:	89 81       	ldd	r24, Y+1	; 0x01
 1a6:	08 2e       	mov	r0, r24
 1a8:	00 0c       	add	r0, r0
 1aa:	99 0b       	sbc	r25, r25
 1ac:	8c 5f       	subi	r24, 0xFC	; 252
 1ae:	9e 4f       	sbci	r25, 0xFE	; 254
 1b0:	22 e0       	ldi	r18, 0x02	; 2
 1b2:	fc 01       	movw	r30, r24
 1b4:	20 83       	st	Z, r18
 1b6:	82 e0       	ldi	r24, 0x02	; 2
 1b8:	15 c0       	rjmp	.+42     	; 0x1e4 <EE_assert+0xb6>
 1ba:	89 81       	ldd	r24, Y+1	; 0x01
 1bc:	08 2e       	mov	r0, r24
 1be:	00 0c       	add	r0, r0
 1c0:	99 0b       	sbc	r25, r25
 1c2:	8c 5f       	subi	r24, 0xFC	; 252
 1c4:	9e 4f       	sbci	r25, 0xFE	; 254
 1c6:	21 e0       	ldi	r18, 0x01	; 1
 1c8:	fc 01       	movw	r30, r24
 1ca:	20 83       	st	Z, r18
 1cc:	81 e0       	ldi	r24, 0x01	; 1
 1ce:	0a c0       	rjmp	.+20     	; 0x1e4 <EE_assert+0xb6>
 1d0:	89 81       	ldd	r24, Y+1	; 0x01
 1d2:	08 2e       	mov	r0, r24
 1d4:	00 0c       	add	r0, r0
 1d6:	99 0b       	sbc	r25, r25
 1d8:	8c 5f       	subi	r24, 0xFC	; 252
 1da:	9e 4f       	sbci	r25, 0xFE	; 254
 1dc:	22 e0       	ldi	r18, 0x02	; 2
 1de:	fc 01       	movw	r30, r24
 1e0:	20 83       	st	Z, r18
 1e2:	82 e0       	ldi	r24, 0x02	; 2
 1e4:	0f 90       	pop	r0
 1e6:	0f 90       	pop	r0
 1e8:	0f 90       	pop	r0
 1ea:	0f 90       	pop	r0
 1ec:	df 91       	pop	r29
 1ee:	cf 91       	pop	r28
 1f0:	08 95       	ret

000001f2 <EE_assert_range>:
 1f2:	cf 93       	push	r28
 1f4:	df 93       	push	r29
 1f6:	00 d0       	rcall	.+0      	; 0x1f8 <EE_assert_range+0x6>
 1f8:	00 d0       	rcall	.+0      	; 0x1fa <EE_assert_range+0x8>
 1fa:	cd b7       	in	r28, 0x3d	; 61
 1fc:	de b7       	in	r29, 0x3e	; 62
 1fe:	8a 83       	std	Y+2, r24	; 0x02
 200:	6b 83       	std	Y+3, r22	; 0x03
 202:	4c 83       	std	Y+4, r20	; 0x04
 204:	8b 81       	ldd	r24, Y+3	; 0x03
 206:	89 83       	std	Y+1, r24	; 0x01
 208:	18 c0       	rjmp	.+48     	; 0x23a <EE_assert_range+0x48>
 20a:	89 81       	ldd	r24, Y+1	; 0x01
 20c:	08 2e       	mov	r0, r24
 20e:	00 0c       	add	r0, r0
 210:	99 0b       	sbc	r25, r25
 212:	8c 5f       	subi	r24, 0xFC	; 252
 214:	9e 4f       	sbci	r25, 0xFE	; 254
 216:	fc 01       	movw	r30, r24
 218:	80 81       	ld	r24, Z
 21a:	81 30       	cpi	r24, 0x01	; 1
 21c:	59 f0       	breq	.+22     	; 0x234 <EE_assert_range+0x42>
 21e:	8a 81       	ldd	r24, Y+2	; 0x02
 220:	08 2e       	mov	r0, r24
 222:	00 0c       	add	r0, r0
 224:	99 0b       	sbc	r25, r25
 226:	8c 5f       	subi	r24, 0xFC	; 252
 228:	9e 4f       	sbci	r25, 0xFE	; 254
 22a:	22 e0       	ldi	r18, 0x02	; 2
 22c:	fc 01       	movw	r30, r24
 22e:	20 83       	st	Z, r18
 230:	82 e0       	ldi	r24, 0x02	; 2
 232:	11 c0       	rjmp	.+34     	; 0x256 <EE_assert_range+0x64>
 234:	89 81       	ldd	r24, Y+1	; 0x01
 236:	8f 5f       	subi	r24, 0xFF	; 255
 238:	89 83       	std	Y+1, r24	; 0x01
 23a:	99 81       	ldd	r25, Y+1	; 0x01
 23c:	8c 81       	ldd	r24, Y+4	; 0x04
 23e:	89 17       	cp	r24, r25
 240:	24 f7       	brge	.-56     	; 0x20a <EE_assert_range+0x18>
 242:	8a 81       	ldd	r24, Y+2	; 0x02
 244:	08 2e       	mov	r0, r24
 246:	00 0c       	add	r0, r0
 248:	99 0b       	sbc	r25, r25
 24a:	8c 5f       	subi	r24, 0xFC	; 252
 24c:	9e 4f       	sbci	r25, 0xFE	; 254
 24e:	21 e0       	ldi	r18, 0x01	; 1
 250:	fc 01       	movw	r30, r24
 252:	20 83       	st	Z, r18
 254:	81 e0       	ldi	r24, 0x01	; 1
 256:	0f 90       	pop	r0
 258:	0f 90       	pop	r0
 25a:	0f 90       	pop	r0
 25c:	0f 90       	pop	r0
 25e:	df 91       	pop	r29
 260:	cf 91       	pop	r28
 262:	08 95       	ret

00000264 <EE_assert_last>:
 264:	cf 93       	push	r28
 266:	df 93       	push	r29
 268:	cd b7       	in	r28, 0x3d	; 61
 26a:	de b7       	in	r29, 0x3e	; 62
 26c:	80 91 04 01 	lds	r24, 0x0104	; 0x800104 <EE_assertions>
 270:	df 91       	pop	r29
 272:	cf 91       	pop	r28
 274:	08 95       	ret

00000276 <__vector_default>:
 276:	f8 94       	cli
 278:	ff cf       	rjmp	.-2      	; 0x278 <__vector_default+0x2>

0000027a <_exit>:
 27a:	f8 94       	cli

0000027c <__stop_program>:
 27c:	ff cf       	rjmp	.-2      	; 0x27c <__stop_program>

Disassembly of section .bss:

00800100 <__bss_start>:
	...

00800102 <main_sp>:
	...

00800104 <EE_assertions>:
	...

00800106 <result>:
	...

Disassembly of section .comment:

00000000 <_end-0x800107>:
   0:	47 43       	sbci	r20, 0x37	; 55
   2:	43 3a       	cpi	r20, 0xA3	; 163
   4:	20 28       	or	r2, r0
   6:	47 4e       	sbci	r20, 0xE7	; 231
   8:	55 29       	or	r21, r5
   a:	20 35       	cpi	r18, 0x50	; 80
   c:	2e 34       	cpi	r18, 0x4E	; 78
   e:	2e 30       	cpi	r18, 0x0E	; 14
	...

Disassembly of section .note.gnu.avr.deviceinfo:

00000000 <.note.gnu.avr.deviceinfo>:
   0:	04 00       	.word	0x0004	; ????
   2:	00 00       	nop
   4:	2d 00       	.word	0x002d	; ????
   6:	00 00       	nop
   8:	01 00       	.word	0x0001	; ????
   a:	00 00       	nop
   c:	41 56       	subi	r20, 0x61	; 97
   e:	52 00       	.word	0x0052	; ????
  10:	00 00       	nop
  12:	00 00       	nop
  14:	00 40       	sbci	r16, 0x00	; 0
  16:	00 00       	nop
  18:	00 01       	movw	r0, r0
  1a:	00 00       	nop
  1c:	00 04       	cpc	r0, r0
  1e:	00 00       	nop
  20:	00 00       	nop
  22:	00 00       	nop
  24:	00 01       	movw	r0, r0
  26:	00 00       	nop
  28:	08 00       	.word	0x0008	; ????
  2a:	00 00       	nop
  2c:	01 00       	.word	0x0001	; ????
  2e:	00 00       	nop
  30:	00 61       	ori	r16, 0x10	; 16
  32:	74 74       	andi	r23, 0x44	; 68
  34:	69 6e       	ori	r22, 0xE9	; 233
  36:	79 31       	cpi	r23, 0x19	; 25
  38:	36 33       	cpi	r19, 0x36	; 54
  3a:	34 00       	.word	0x0034	; ????
  3c:	00 00       	nop
	...

Disassembly of section .debug_aranges:

00000000 <.debug_aranges>:
   0:	34 00       	.word	0x0034	; ????
   2:	00 00       	nop
   4:	02 00       	.word	0x0002	; ????
   6:	84 06       	cpc	r8, r20
   8:	00 00       	nop
   a:	04 00       	.word	0x0004	; ????
	...
  18:	a8 00       	.word	0x00a8	; ????
  1a:	00 00       	nop
  1c:	18 00       	.word	0x0018	; ????
	...
  26:	00 00       	nop
  28:	c0 00       	.word	0x00c0	; ????
  2a:	00 00       	nop
  2c:	6e 00       	.word	0x006e	; ????
	...
  36:	00 00       	nop
  38:	44 00       	.word	0x0044	; ????
  3a:	00 00       	nop
  3c:	02 00       	.word	0x0002	; ????
  3e:	68 08       	sbc	r6, r8
  40:	00 00       	nop
  42:	04 00       	.word	0x0004	; ????
	...
  50:	2e 01       	movw	r4, r28
  52:	00 00       	nop
  54:	c4 00       	.word	0x00c4	; ????
	...
  66:	00 00       	nop
  68:	f2 01       	movw	r30, r4
  6a:	00 00       	nop
  6c:	72 00       	.word	0x0072	; ????
  6e:	00 00       	nop
  70:	64 02       	muls	r22, r20
  72:	00 00       	nop
  74:	12 00       	.word	0x0012	; ????
	...
  7e:	00 00       	nop
  80:	44 00       	.word	0x0044	; ????
  82:	00 00       	nop
  84:	02 00       	.word	0x0002	; ????
  86:	85 0a       	sbc	r8, r21
  88:	00 00       	nop
  8a:	04 00       	.word	0x0004	; ????
	...
  b0:	76 02       	muls	r23, r22
  b2:	00 00       	nop
  b4:	04 00       	.word	0x0004	; ????
	...

Disassembly of section .debug_info:

00000000 <.debug_info>:
   0:	80 06       	cpc	r8, r16
   2:	00 00       	nop
   4:	02 00       	.word	0x0002	; ????
   6:	00 00       	nop
   8:	00 00       	nop
   a:	04 01       	movw	r0, r8
	...
  14:	02 0f       	add	r16, r18
  16:	00 00       	nop
  18:	00 01       	movw	r0, r0
  1a:	08 03       	fmul	r16, r16
  1c:	17 00       	.word	0x0017	; ????
  1e:	00 00       	nop
  20:	02 07       	cpc	r16, r18
  22:	04 14       	cp	r0, r4
  24:	00 00       	nop
  26:	00 05       	cpc	r16, r0
  28:	1b 00       	.word	0x001b	; ????
  2a:	00 00       	nop
  2c:	ff 00       	.word	0x00ff	; ????
  2e:	00 06       	cpc	r0, r16
  30:	20 00       	.word	0x0020	; ????
  32:	00 00       	nop
  34:	00 00       	nop
  36:	22 00       	.word	0x0022	; ????
  38:	00 00       	nop
  3a:	01 05       	cpc	r16, r1
  3c:	03 00       	.word	0x0003	; ????
  3e:	00 81       	ld	r16, Z
  40:	00 07       	cpc	r16, r16
  42:	29 00       	.word	0x0029	; ????
  44:	00 00       	nop
  46:	00 00       	nop
  48:	14 00       	.word	0x0014	; ????
  4a:	00 00       	nop
  4c:	01 05       	cpc	r16, r1
  4e:	03 7f       	andi	r16, 0xF3	; 243
  50:	00 80       	ld	r0, Z
  52:	00 08       	sbc	r0, r0
  54:	30 00       	.word	0x0030	; ????
  56:	00 00       	nop
  58:	00 00       	nop
  5a:	14 00       	.word	0x0014	; ????
  5c:	00 00       	nop
  5e:	01 05       	cpc	r16, r1
  60:	03 7e       	andi	r16, 0xE3	; 227
  62:	00 80       	ld	r0, Z
  64:	00 09       	sbc	r16, r0
  66:	37 00       	.word	0x0037	; ????
  68:	00 00       	nop
  6a:	00 00       	nop
  6c:	14 00       	.word	0x0014	; ????
  6e:	00 00       	nop
  70:	01 05       	cpc	r16, r1
  72:	03 7d       	andi	r16, 0xD3	; 211
  74:	00 80       	ld	r0, Z
  76:	00 0a       	sbc	r0, r16
  78:	3e 00       	.word	0x003e	; ????
  7a:	00 00       	nop
  7c:	00 00       	nop
  7e:	14 00       	.word	0x0014	; ????
  80:	00 00       	nop
  82:	01 05       	cpc	r16, r1
  84:	03 7c       	andi	r16, 0xC3	; 195
  86:	00 80       	ld	r0, Z
  88:	00 0b       	sbc	r16, r16
  8a:	43 00       	.word	0x0043	; ????
  8c:	00 00       	nop
  8e:	00 00       	nop
  90:	14 00       	.word	0x0014	; ????
  92:	00 00       	nop
  94:	01 05       	cpc	r16, r1
  96:	03 7a       	andi	r16, 0xA3	; 163
  98:	00 80       	ld	r0, Z
  9a:	00 0c       	add	r0, r0
  9c:	48 00       	.word	0x0048	; ????
  9e:	00 00       	nop
  a0:	00 00       	nop
  a2:	14 00       	.word	0x0014	; ????
  a4:	00 00       	nop
  a6:	01 05       	cpc	r16, r1
  a8:	03 7b       	andi	r16, 0xB3	; 179
  aa:	00 80       	ld	r0, Z
  ac:	00 0d       	add	r16, r0
  ae:	4e 00       	.word	0x004e	; ????
  b0:	00 00       	nop
  b2:	00 00       	nop
  b4:	14 00       	.word	0x0014	; ????
  b6:	00 00       	nop
  b8:	01 05       	cpc	r16, r1
  ba:	03 33       	cpi	r16, 0x33	; 51
  bc:	00 80       	ld	r0, Z
  be:	00 0e       	add	r0, r16
  c0:	55 00       	.word	0x0055	; ????
  c2:	00 00       	nop
  c4:	00 00       	nop
  c6:	14 00       	.word	0x0014	; ????
  c8:	00 00       	nop
  ca:	01 05       	cpc	r16, r1
  cc:	03 2e       	mov	r0, r19
  ce:	00 80       	ld	r0, Z
  d0:	00 0f       	add	r16, r16
  d2:	5a 00       	.word	0x005a	; ????
  d4:	00 00       	nop
  d6:	00 00       	nop
  d8:	14 00       	.word	0x0014	; ????
  da:	00 00       	nop
  dc:	01 05       	cpc	r16, r1
  de:	03 2c       	mov	r0, r3
  e0:	00 80       	ld	r0, Z
  e2:	00 10       	cpse	r0, r0
  e4:	5f 00       	.word	0x005f	; ????
  e6:	00 00       	nop
  e8:	00 00       	nop
  ea:	14 00       	.word	0x0014	; ????
  ec:	00 00       	nop
  ee:	01 05       	cpc	r16, r1
  f0:	03 2b       	or	r16, r19
  f2:	00 80       	ld	r0, Z
  f4:	00 11       	cpse	r16, r0
  f6:	64 00       	.word	0x0064	; ????
  f8:	00 00       	nop
  fa:	00 00       	nop
  fc:	14 00       	.word	0x0014	; ????
  fe:	00 00       	nop
 100:	01 05       	cpc	r16, r1
 102:	03 2d       	mov	r16, r3
 104:	00 80       	ld	r0, Z
 106:	00 12       	cpse	r0, r16
 108:	6a 00       	.word	0x006a	; ????
 10a:	00 00       	nop
 10c:	00 00       	nop
 10e:	14 00       	.word	0x0014	; ????
 110:	00 00       	nop
 112:	01 05       	cpc	r16, r1
 114:	03 33       	cpi	r16, 0x33	; 51
 116:	00 80       	ld	r0, Z
 118:	00 13       	cpse	r16, r16
 11a:	71 00       	.word	0x0071	; ????
 11c:	00 00       	nop
 11e:	00 00       	nop
 120:	14 00       	.word	0x0014	; ????
 122:	00 00       	nop
 124:	01 05       	cpc	r16, r1
 126:	03 2a       	or	r0, r19
 128:	00 80       	ld	r0, Z
 12a:	00 14       	cp	r0, r0
 12c:	76 00       	.word	0x0076	; ????
 12e:	00 00       	nop
 130:	00 00       	nop
 132:	14 00       	.word	0x0014	; ????
 134:	00 00       	nop
 136:	01 05       	cpc	r16, r1
 138:	03 29       	or	r16, r3
 13a:	00 80       	ld	r0, Z
 13c:	00 15       	cp	r16, r0
 13e:	7c 00       	.word	0x007c	; ????
 140:	00 00       	nop
 142:	00 00       	nop
 144:	14 00       	.word	0x0014	; ????
 146:	00 00       	nop
 148:	01 05       	cpc	r16, r1
 14a:	03 28       	or	r0, r3
 14c:	00 80       	ld	r0, Z
 14e:	00 16       	cp	r0, r16
 150:	81 00       	.word	0x0081	; ????
 152:	00 00       	nop
 154:	00 00       	nop
 156:	14 00       	.word	0x0014	; ????
 158:	00 00       	nop
 15a:	01 05       	cpc	r16, r1
 15c:	03 27       	eor	r16, r19
 15e:	00 80       	ld	r0, Z
 160:	00 17       	cp	r16, r16
 162:	86 00       	.word	0x0086	; ????
 164:	00 00       	nop
 166:	00 00       	nop
 168:	14 00       	.word	0x0014	; ????
 16a:	00 00       	nop
 16c:	01 05       	cpc	r16, r1
 16e:	03 33       	cpi	r16, 0x33	; 51
 170:	00 80       	ld	r0, Z
 172:	00 18       	sub	r0, r0
 174:	8d 00       	.word	0x008d	; ????
 176:	00 00       	nop
 178:	00 00       	nop
 17a:	14 00       	.word	0x0014	; ????
 17c:	00 00       	nop
 17e:	01 05       	cpc	r16, r1
 180:	03 32       	cpi	r16, 0x23	; 35
 182:	00 80       	ld	r0, Z
 184:	00 19       	sub	r16, r0
 186:	92 00       	.word	0x0092	; ????
 188:	00 00       	nop
 18a:	00 00       	nop
 18c:	14 00       	.word	0x0014	; ????
 18e:	00 00       	nop
 190:	01 05       	cpc	r16, r1
 192:	03 31       	cpi	r16, 0x13	; 19
 194:	00 80       	ld	r0, Z
 196:	00 1a       	sub	r0, r16
 198:	98 00       	.word	0x0098	; ????
 19a:	00 00       	nop
 19c:	00 00       	nop
 19e:	14 00       	.word	0x0014	; ????
 1a0:	00 00       	nop
 1a2:	01 05       	cpc	r16, r1
 1a4:	03 30       	cpi	r16, 0x03	; 3
 1a6:	00 80       	ld	r0, Z
 1a8:	00 1b       	sub	r16, r16
 1aa:	9d 00       	.word	0x009d	; ????
 1ac:	00 00       	nop
 1ae:	00 00       	nop
 1b0:	14 00       	.word	0x0014	; ????
 1b2:	00 00       	nop
 1b4:	01 05       	cpc	r16, r1
 1b6:	03 2f       	mov	r16, r19
 1b8:	00 80       	ld	r0, Z
 1ba:	00 1c       	adc	r0, r0
 1bc:	a2 00       	.word	0x00a2	; ????
 1be:	00 00       	nop
 1c0:	00 00       	nop
 1c2:	14 00       	.word	0x0014	; ????
 1c4:	00 00       	nop
 1c6:	01 05       	cpc	r16, r1
 1c8:	03 24       	eor	r0, r3
 1ca:	00 80       	ld	r0, Z
 1cc:	00 1d       	adc	r16, r0
 1ce:	a8 00       	.word	0x00a8	; ????
 1d0:	00 00       	nop
 1d2:	00 00       	nop
 1d4:	14 00       	.word	0x0014	; ????
 1d6:	00 00       	nop
 1d8:	01 05       	cpc	r16, r1
 1da:	03 23       	and	r16, r19
 1dc:	00 80       	ld	r0, Z
 1de:	00 1e       	adc	r0, r16
 1e0:	af 00       	.word	0x00af	; ????
 1e2:	00 00       	nop
 1e4:	00 00       	nop
 1e6:	1b 00       	.word	0x001b	; ????
 1e8:	00 00       	nop
 1ea:	01 05       	cpc	r16, r1
 1ec:	03 20       	and	r0, r3
 1ee:	00 80       	ld	r0, Z
 1f0:	00 1f       	adc	r16, r16
 1f2:	b3 00       	.word	0x00b3	; ????
 1f4:	00 00       	nop
 1f6:	00 00       	nop
 1f8:	14 00       	.word	0x0014	; ????
 1fa:	00 00       	nop
 1fc:	01 05       	cpc	r16, r1
 1fe:	03 22       	and	r0, r19
 200:	00 80       	ld	r0, Z
 202:	00 20       	and	r0, r0
 204:	ba 00       	.word	0x00ba	; ????
 206:	00 00       	nop
 208:	00 00       	nop
 20a:	14 00       	.word	0x0014	; ????
 20c:	00 00       	nop
 20e:	01 05       	cpc	r16, r1
 210:	03 62       	ori	r16, 0x23	; 35
 212:	00 80       	ld	r0, Z
 214:	00 21       	and	r16, r0
 216:	c0 00       	.word	0x00c0	; ????
 218:	00 00       	nop
 21a:	00 00       	nop
 21c:	14 00       	.word	0x0014	; ????
 21e:	00 00       	nop
 220:	01 05       	cpc	r16, r1
 222:	03 61       	ori	r16, 0x13	; 19
 224:	00 80       	ld	r0, Z
 226:	00 22       	and	r0, r16
 228:	c6 00       	.word	0x00c6	; ????
 22a:	00 00       	nop
 22c:	00 00       	nop
 22e:	14 00       	.word	0x0014	; ????
 230:	00 00       	nop
 232:	01 05       	cpc	r16, r1
 234:	03 60       	ori	r16, 0x03	; 3
 236:	00 80       	ld	r0, Z
 238:	00 23       	and	r16, r16
 23a:	cc 00       	.word	0x00cc	; ????
 23c:	00 00       	nop
 23e:	00 00       	nop
 240:	14 00       	.word	0x0014	; ????
 242:	00 00       	nop
 244:	01 05       	cpc	r16, r1
 246:	03 25       	eor	r16, r3
 248:	00 80       	ld	r0, Z
 24a:	00 24       	eor	r0, r0
 24c:	d2 00       	.word	0x00d2	; ????
 24e:	00 00       	nop
 250:	00 00       	nop
 252:	14 00       	.word	0x0014	; ????
 254:	00 00       	nop
 256:	01 05       	cpc	r16, r1
 258:	03 26       	eor	r0, r19
 25a:	00 80       	ld	r0, Z
 25c:	00 25       	eor	r16, r0
 25e:	d8 00       	.word	0x00d8	; ????
 260:	00 00       	nop
 262:	00 00       	nop
 264:	1b 00       	.word	0x001b	; ????
 266:	00 00       	nop
 268:	01 05       	cpc	r16, r1
 26a:	03 3e       	cpi	r16, 0xE3	; 227
 26c:	00 80       	ld	r0, Z
 26e:	00 26       	eor	r0, r16
 270:	dd 00       	.word	0x00dd	; ????
 272:	00 00       	nop
 274:	00 00       	nop
 276:	14 00       	.word	0x0014	; ????
 278:	00 00       	nop
 27a:	01 05       	cpc	r16, r1
 27c:	03 3d       	cpi	r16, 0xD3	; 211
 27e:	00 80       	ld	r0, Z
 280:	00 27       	eor	r16, r16
 282:	e2 00       	.word	0x00e2	; ????
 284:	00 00       	nop
 286:	00 00       	nop
 288:	14 00       	.word	0x0014	; ????
 28a:	00 00       	nop
 28c:	01 05       	cpc	r16, r1
 28e:	03 3c       	cpi	r16, 0xC3	; 195
 290:	00 80       	ld	r0, Z
 292:	00 28       	or	r0, r0
 294:	e7 00       	.word	0x00e7	; ????
 296:	00 00       	nop
 298:	00 00       	nop
 29a:	14 00       	.word	0x0014	; ????
 29c:	00 00       	nop
 29e:	01 05       	cpc	r16, r1
 2a0:	03 5a       	subi	r16, 0xA3	; 163
 2a2:	00 80       	ld	r0, Z
 2a4:	00 29       	or	r16, r0
 2a6:	ed 00       	.word	0x00ed	; ????
 2a8:	00 00       	nop
 2aa:	00 00       	nop
 2ac:	14 00       	.word	0x0014	; ????
 2ae:	00 00       	nop
 2b0:	01 05       	cpc	r16, r1
 2b2:	03 59       	subi	r16, 0x93	; 147
 2b4:	00 80       	ld	r0, Z
 2b6:	00 2a       	or	r0, r16
 2b8:	f2 00       	.word	0x00f2	; ????
 2ba:	00 00       	nop
 2bc:	00 00       	nop
 2be:	14 00       	.word	0x0014	; ????
 2c0:	00 00       	nop
 2c2:	01 05       	cpc	r16, r1
 2c4:	03 72       	andi	r16, 0x23	; 35
 2c6:	00 80       	ld	r0, Z
 2c8:	00 2b       	or	r16, r16
 2ca:	f9 00       	.word	0x00f9	; ????
 2cc:	00 00       	nop
 2ce:	00 00       	nop
 2d0:	14 00       	.word	0x0014	; ????
 2d2:	00 00       	nop
 2d4:	01 05       	cpc	r16, r1
 2d6:	03 71       	andi	r16, 0x13	; 19
 2d8:	00 80       	ld	r0, Z
 2da:	00 2c       	mov	r0, r0
 2dc:	00 01       	movw	r0, r0
 2de:	00 00       	nop
 2e0:	00 00       	nop
 2e2:	14 00       	.word	0x0014	; ????
 2e4:	00 00       	nop
 2e6:	01 05       	cpc	r16, r1
 2e8:	03 70       	andi	r16, 0x03	; 3
 2ea:	00 80       	ld	r0, Z
 2ec:	00 2d       	mov	r16, r0
 2ee:	07 01       	movw	r0, r14
 2f0:	00 00       	nop
 2f2:	00 00       	nop
 2f4:	1b 00       	.word	0x001b	; ????
 2f6:	00 00       	nop
 2f8:	01 05       	cpc	r16, r1
 2fa:	03 6e       	ori	r16, 0xE3	; 227
 2fc:	00 80       	ld	r0, Z
 2fe:	00 2e       	mov	r0, r16
 300:	0d 01       	movw	r0, r26
 302:	00 00       	nop
 304:	00 00       	nop
 306:	1b 00       	.word	0x001b	; ????
 308:	00 00       	nop
 30a:	01 05       	cpc	r16, r1
 30c:	03 6c       	ori	r16, 0xC3	; 195
 30e:	00 80       	ld	r0, Z
 310:	00 2f       	mov	r16, r16
 312:	13 01       	movw	r2, r6
 314:	00 00       	nop
 316:	00 00       	nop
 318:	1b 00       	.word	0x001b	; ????
 31a:	00 00       	nop
 31c:	01 05       	cpc	r16, r1
 31e:	03 6a       	ori	r16, 0xA3	; 163
 320:	00 80       	ld	r0, Z
 322:	00 30       	cpi	r16, 0x00	; 0
 324:	19 01       	movw	r2, r18
 326:	00 00       	nop
 328:	00 00       	nop
 32a:	1b 00       	.word	0x001b	; ????
 32c:	00 00       	nop
 32e:	01 05       	cpc	r16, r1
 330:	03 68       	ori	r16, 0x83	; 131
 332:	00 80       	ld	r0, Z
 334:	00 31       	cpi	r16, 0x10	; 16
 336:	1e 01       	movw	r2, r28
 338:	00 00       	nop
 33a:	00 00       	nop
 33c:	14 00       	.word	0x0014	; ????
 33e:	00 00       	nop
 340:	01 05       	cpc	r16, r1
 342:	03 67       	ori	r16, 0x73	; 115
 344:	00 80       	ld	r0, Z
 346:	00 32       	cpi	r16, 0x20	; 32
 348:	24 01       	movw	r4, r8
 34a:	00 00       	nop
 34c:	00 00       	nop
 34e:	14 00       	.word	0x0014	; ????
 350:	00 00       	nop
 352:	01 05       	cpc	r16, r1
 354:	03 5a       	subi	r16, 0xA3	; 163
 356:	00 80       	ld	r0, Z
 358:	00 33       	cpi	r16, 0x30	; 48
 35a:	2a 01       	movw	r4, r20
 35c:	00 00       	nop
 35e:	00 00       	nop
 360:	14 00       	.word	0x0014	; ????
 362:	00 00       	nop
 364:	01 05       	cpc	r16, r1
 366:	03 59       	subi	r16, 0x93	; 147
 368:	00 80       	ld	r0, Z
 36a:	00 34       	cpi	r16, 0x40	; 64
 36c:	2f 01       	movw	r4, r30
 36e:	00 00       	nop
 370:	00 00       	nop
 372:	14 00       	.word	0x0014	; ????
 374:	00 00       	nop
 376:	01 05       	cpc	r16, r1
 378:	03 37       	cpi	r16, 0x73	; 115
 37a:	00 80       	ld	r0, Z
 37c:	00 35       	cpi	r16, 0x50	; 80
 37e:	35 01       	movw	r6, r10
 380:	00 00       	nop
 382:	00 00       	nop
 384:	14 00       	.word	0x0014	; ????
 386:	00 00       	nop
 388:	01 05       	cpc	r16, r1
 38a:	03 38       	cpi	r16, 0x83	; 131
 38c:	00 80       	ld	r0, Z
 38e:	00 36       	cpi	r16, 0x60	; 96
 390:	3b 01       	movw	r6, r22
 392:	00 00       	nop
 394:	00 00       	nop
 396:	14 00       	.word	0x0014	; ????
 398:	00 00       	nop
 39a:	01 05       	cpc	r16, r1
 39c:	03 3b       	cpi	r16, 0xB3	; 179
 39e:	00 80       	ld	r0, Z
 3a0:	00 37       	cpi	r16, 0x70	; 112
 3a2:	42 01       	movw	r8, r4
 3a4:	00 00       	nop
 3a6:	00 00       	nop
 3a8:	14 00       	.word	0x0014	; ????
 3aa:	00 00       	nop
 3ac:	01 05       	cpc	r16, r1
 3ae:	03 39       	cpi	r16, 0x93	; 147
 3b0:	00 80       	ld	r0, Z
 3b2:	00 38       	cpi	r16, 0x80	; 128
 3b4:	48 01       	movw	r8, r16
 3b6:	00 00       	nop
 3b8:	00 00       	nop
 3ba:	14 00       	.word	0x0014	; ????
 3bc:	00 00       	nop
 3be:	01 05       	cpc	r16, r1
 3c0:	03 3a       	cpi	r16, 0xA3	; 163
 3c2:	00 80       	ld	r0, Z
 3c4:	00 39       	cpi	r16, 0x90	; 144
 3c6:	4f 01       	movw	r8, r30
 3c8:	00 00       	nop
 3ca:	00 00       	nop
 3cc:	14 00       	.word	0x0014	; ????
 3ce:	00 00       	nop
 3d0:	01 05       	cpc	r16, r1
 3d2:	03 67       	ori	r16, 0x73	; 115
 3d4:	00 80       	ld	r0, Z
 3d6:	00 3a       	cpi	r16, 0xA0	; 160
 3d8:	55 01       	movw	r10, r10
 3da:	00 00       	nop
 3dc:	00 00       	nop
 3de:	14 00       	.word	0x0014	; ????
 3e0:	00 00       	nop
 3e2:	01 05       	cpc	r16, r1
 3e4:	03 49       	sbci	r16, 0x93	; 147
 3e6:	00 80       	ld	r0, Z
 3e8:	00 3b       	cpi	r16, 0xB0	; 176
 3ea:	5c 01       	movw	r10, r24
 3ec:	00 00       	nop
 3ee:	00 00       	nop
 3f0:	14 00       	.word	0x0014	; ????
 3f2:	00 00       	nop
 3f4:	01 05       	cpc	r16, r1
 3f6:	03 48       	sbci	r16, 0x83	; 131
 3f8:	00 80       	ld	r0, Z
 3fa:	00 3c       	cpi	r16, 0xC0	; 192
 3fc:	63 01       	movw	r12, r6
 3fe:	00 00       	nop
 400:	00 00       	nop
 402:	14 00       	.word	0x0014	; ????
 404:	00 00       	nop
 406:	01 05       	cpc	r16, r1
 408:	03 47       	sbci	r16, 0x73	; 115
 40a:	00 80       	ld	r0, Z
 40c:	00 3d       	cpi	r16, 0xD0	; 208
 40e:	6a 01       	movw	r12, r20
 410:	00 00       	nop
 412:	00 00       	nop
 414:	14 00       	.word	0x0014	; ????
 416:	00 00       	nop
 418:	01 05       	cpc	r16, r1
 41a:	03 5b       	subi	r16, 0xB3	; 179
 41c:	00 80       	ld	r0, Z
 41e:	00 3e       	cpi	r16, 0xE0	; 224
 420:	6f 01       	movw	r12, r30
 422:	00 00       	nop
 424:	00 00       	nop
 426:	14 00       	.word	0x0014	; ????
 428:	00 00       	nop
 42a:	01 05       	cpc	r16, r1
 42c:	03 5c       	subi	r16, 0xC3	; 195
 42e:	00 80       	ld	r0, Z
 430:	00 3f       	cpi	r16, 0xF0	; 240
 432:	75 01       	movw	r14, r10
 434:	00 00       	nop
 436:	00 00       	nop
 438:	14 00       	.word	0x0014	; ????
 43a:	00 00       	nop
 43c:	01 05       	cpc	r16, r1
 43e:	03 54       	subi	r16, 0x43	; 67
 440:	00 80       	ld	r0, Z
 442:	00 40       	sbci	r16, 0x00	; 0
 444:	79 01       	movw	r14, r18
 446:	00 00       	nop
 448:	00 00       	nop
 44a:	14 00       	.word	0x0014	; ????
 44c:	00 00       	nop
 44e:	01 05       	cpc	r16, r1
 450:	03 4f       	sbci	r16, 0xF3	; 243
 452:	00 80       	ld	r0, Z
 454:	00 41       	sbci	r16, 0x10	; 16
 456:	7d 01       	movw	r14, r26
 458:	00 00       	nop
 45a:	00 00       	nop
 45c:	14 00       	.word	0x0014	; ????
 45e:	00 00       	nop
 460:	01 05       	cpc	r16, r1
 462:	03 63       	ori	r16, 0x33	; 51
 464:	00 80       	ld	r0, Z
 466:	00 42       	sbci	r16, 0x20	; 32
 468:	85 01       	movw	r16, r10
 46a:	00 00       	nop
 46c:	00 00       	nop
 46e:	14 00       	.word	0x0014	; ????
 470:	00 00       	nop
 472:	01 05       	cpc	r16, r1
 474:	03 66       	ori	r16, 0x63	; 99
 476:	00 80       	ld	r0, Z
 478:	00 43       	sbci	r16, 0x30	; 48
 47a:	8d 01       	movw	r16, r26
 47c:	00 00       	nop
 47e:	00 00       	nop
 480:	14 00       	.word	0x0014	; ????
 482:	00 00       	nop
 484:	01 05       	cpc	r16, r1
 486:	03 64       	ori	r16, 0x43	; 67
 488:	00 80       	ld	r0, Z
 48a:	00 44       	sbci	r16, 0x40	; 64
 48c:	97 01       	movw	r18, r14
 48e:	00 00       	nop
 490:	00 00       	nop
 492:	14 00       	.word	0x0014	; ????
 494:	00 00       	nop
 496:	01 05       	cpc	r16, r1
 498:	03 65       	ori	r16, 0x53	; 83
 49a:	00 80       	ld	r0, Z
 49c:	00 45       	sbci	r16, 0x50	; 80
 49e:	a1 01       	movw	r20, r2
 4a0:	00 00       	nop
 4a2:	00 00       	nop
 4a4:	14 00       	.word	0x0014	; ????
 4a6:	00 00       	nop
 4a8:	01 05       	cpc	r16, r1
 4aa:	03 53       	subi	r16, 0x33	; 51
 4ac:	00 80       	ld	r0, Z
 4ae:	00 46       	sbci	r16, 0x60	; 96
 4b0:	a7 01       	movw	r20, r14
 4b2:	00 00       	nop
 4b4:	00 00       	nop
 4b6:	14 00       	.word	0x0014	; ????
 4b8:	00 00       	nop
 4ba:	01 05       	cpc	r16, r1
 4bc:	03 52       	subi	r16, 0x23	; 35
 4be:	00 80       	ld	r0, Z
 4c0:	00 47       	sbci	r16, 0x70	; 112
 4c2:	ad 01       	movw	r20, r26
 4c4:	00 00       	nop
 4c6:	00 00       	nop
 4c8:	14 00       	.word	0x0014	; ????
 4ca:	00 00       	nop
 4cc:	01 05       	cpc	r16, r1
 4ce:	03 5f       	subi	r16, 0xF3	; 243
 4d0:	00 80       	ld	r0, Z
 4d2:	00 48       	sbci	r16, 0x80	; 128
 4d4:	b2 01       	movw	r22, r4
 4d6:	00 00       	nop
 4d8:	00 00       	nop
 4da:	1b 00       	.word	0x001b	; ????
 4dc:	00 00       	nop
 4de:	01 05       	cpc	r16, r1
 4e0:	03 5d       	subi	r16, 0xD3	; 211
 4e2:	00 80       	ld	r0, Z
 4e4:	00 49       	sbci	r16, 0x90	; 144
 4e6:	b5 01       	movw	r22, r10
 4e8:	00 00       	nop
 4ea:	00 00       	nop
 4ec:	14 00       	.word	0x0014	; ????
 4ee:	00 00       	nop
 4f0:	01 05       	cpc	r16, r1
 4f2:	03 56       	subi	r16, 0x63	; 99
 4f4:	00 80       	ld	r0, Z
 4f6:	00 4a       	sbci	r16, 0xA0	; 160
 4f8:	bb 01       	movw	r22, r22
 4fa:	00 00       	nop
 4fc:	00 00       	nop
 4fe:	14 00       	.word	0x0014	; ????
 500:	00 00       	nop
 502:	01 05       	cpc	r16, r1
 504:	03 55       	subi	r16, 0x53	; 83
 506:	00 80       	ld	r0, Z
 508:	00 4b       	sbci	r16, 0xB0	; 176
 50a:	c1 01       	movw	r24, r2
 50c:	00 00       	nop
 50e:	00 00       	nop
 510:	14 00       	.word	0x0014	; ????
 512:	00 00       	nop
 514:	01 05       	cpc	r16, r1
 516:	03 36       	cpi	r16, 0x63	; 99
 518:	00 80       	ld	r0, Z
 51a:	00 4c       	sbci	r16, 0xC0	; 192
 51c:	c8 01       	movw	r24, r16
 51e:	00 00       	nop
 520:	00 00       	nop
 522:	14 00       	.word	0x0014	; ????
 524:	00 00       	nop
 526:	01 05       	cpc	r16, r1
 528:	03 35       	cpi	r16, 0x53	; 83
 52a:	00 80       	ld	r0, Z
 52c:	00 4d       	sbci	r16, 0xD0	; 208
 52e:	cf 01       	movw	r24, r30
 530:	00 00       	nop
 532:	00 00       	nop
 534:	14 00       	.word	0x0014	; ????
 536:	00 00       	nop
 538:	01 05       	cpc	r16, r1
 53a:	03 34       	cpi	r16, 0x43	; 67
 53c:	00 80       	ld	r0, Z
 53e:	00 4e       	sbci	r16, 0xE0	; 224
 540:	d6 01       	movw	r26, r12
 542:	00 00       	nop
 544:	00 00       	nop
 546:	14 00       	.word	0x0014	; ????
 548:	00 00       	nop
 54a:	01 05       	cpc	r16, r1
 54c:	03 57       	subi	r16, 0x73	; 115
 54e:	00 80       	ld	r0, Z
 550:	00 4f       	sbci	r16, 0xF0	; 240
 552:	dd 01       	movw	r26, r26
 554:	00 00       	nop
 556:	00 00       	nop
 558:	14 00       	.word	0x0014	; ????
 55a:	00 00       	nop
 55c:	01 05       	cpc	r16, r1
 55e:	03 4d       	sbci	r16, 0xD3	; 211
 560:	00 80       	ld	r0, Z
 562:	00 50       	subi	r16, 0x00	; 0
 564:	e3 01       	movw	r28, r6
 566:	00 00       	nop
 568:	00 00       	nop
 56a:	14 00       	.word	0x0014	; ????
 56c:	00 00       	nop
 56e:	01 05       	cpc	r16, r1
 570:	03 4c       	sbci	r16, 0xC3	; 195
 572:	00 80       	ld	r0, Z
 574:	00 51       	subi	r16, 0x10	; 16
 576:	e9 01       	movw	r28, r18
 578:	00 00       	nop
 57a:	00 00       	nop
 57c:	14 00       	.word	0x0014	; ????
 57e:	00 00       	nop
 580:	01 05       	cpc	r16, r1
 582:	03 4b       	sbci	r16, 0xB3	; 179
 584:	00 80       	ld	r0, Z
 586:	00 52       	subi	r16, 0x20	; 32
 588:	ef 01       	movw	r28, r30
 58a:	00 00       	nop
 58c:	00 00       	nop
 58e:	14 00       	.word	0x0014	; ????
 590:	00 00       	nop
 592:	01 05       	cpc	r16, r1
 594:	03 4a       	sbci	r16, 0xA3	; 163
 596:	00 80       	ld	r0, Z
 598:	00 53       	subi	r16, 0x30	; 48
 59a:	f5 01       	movw	r30, r10
 59c:	00 00       	nop
 59e:	00 00       	nop
 5a0:	14 00       	.word	0x0014	; ????
 5a2:	00 00       	nop
 5a4:	01 05       	cpc	r16, r1
 5a6:	03 40       	sbci	r16, 0x03	; 3
 5a8:	00 80       	ld	r0, Z
 5aa:	00 54       	subi	r16, 0x40	; 64
 5ac:	fa 01       	movw	r30, r20
 5ae:	00 00       	nop
 5b0:	00 00       	nop
 5b2:	14 00       	.word	0x0014	; ????
 5b4:	00 00       	nop
 5b6:	01 05       	cpc	r16, r1
 5b8:	03 46       	sbci	r16, 0x63	; 99
 5ba:	00 80       	ld	r0, Z
 5bc:	00 55       	subi	r16, 0x50	; 80
 5be:	01 02       	muls	r16, r17
 5c0:	00 00       	nop
 5c2:	00 00       	nop
 5c4:	14 00       	.word	0x0014	; ????
 5c6:	00 00       	nop
 5c8:	01 05       	cpc	r16, r1
 5ca:	03 45       	sbci	r16, 0x53	; 83
 5cc:	00 80       	ld	r0, Z
 5ce:	00 56       	subi	r16, 0x60	; 96
 5d0:	08 02       	muls	r16, r24
 5d2:	00 00       	nop
 5d4:	00 00       	nop
 5d6:	14 00       	.word	0x0014	; ????
 5d8:	00 00       	nop
 5da:	01 05       	cpc	r16, r1
 5dc:	03 44       	sbci	r16, 0x43	; 67
 5de:	00 80       	ld	r0, Z
 5e0:	00 57       	subi	r16, 0x70	; 112
 5e2:	0f 02       	muls	r16, r31
 5e4:	00 00       	nop
 5e6:	00 00       	nop
 5e8:	14 00       	.word	0x0014	; ????
 5ea:	00 00       	nop
 5ec:	01 05       	cpc	r16, r1
 5ee:	03 43       	sbci	r16, 0x33	; 51
 5f0:	00 80       	ld	r0, Z
 5f2:	00 58       	subi	r16, 0x80	; 128
 5f4:	16 02       	muls	r17, r22
 5f6:	00 00       	nop
 5f8:	00 00       	nop
 5fa:	1b 00       	.word	0x001b	; ????
 5fc:	00 00       	nop
 5fe:	01 05       	cpc	r16, r1
 600:	03 41       	sbci	r16, 0x13	; 19
 602:	00 80       	ld	r0, Z
 604:	00 59       	subi	r16, 0x90	; 144
 606:	1c 02       	muls	r17, r28
 608:	00 00       	nop
 60a:	00 00       	nop
 60c:	14 00       	.word	0x0014	; ????
 60e:	00 00       	nop
 610:	01 05       	cpc	r16, r1
 612:	03 73       	andi	r16, 0x33	; 51
 614:	00 80       	ld	r0, Z
 616:	00 5a       	subi	r16, 0xA0	; 160
 618:	21 02       	muls	r18, r17
 61a:	00 00       	nop
 61c:	00 00       	nop
 61e:	14 00       	.word	0x0014	; ????
 620:	00 00       	nop
 622:	01 05       	cpc	r16, r1
 624:	03 79       	andi	r16, 0x93	; 147
 626:	00 80       	ld	r0, Z
 628:	00 5b       	subi	r16, 0xB0	; 176
 62a:	28 02       	muls	r18, r24
 62c:	00 00       	nop
 62e:	00 00       	nop
 630:	14 00       	.word	0x0014	; ????
 632:	00 00       	nop
 634:	01 05       	cpc	r16, r1
 636:	03 78       	andi	r16, 0x83	; 131
 638:	00 80       	ld	r0, Z
 63a:	00 5c       	subi	r16, 0xC0	; 192
 63c:	2f 02       	muls	r18, r31
 63e:	00 00       	nop
 640:	00 00       	nop
 642:	14 00       	.word	0x0014	; ????
 644:	00 00       	nop
 646:	01 05       	cpc	r16, r1
 648:	03 77       	andi	r16, 0x73	; 115
 64a:	00 80       	ld	r0, Z
 64c:	00 5d       	subi	r16, 0xD0	; 208
 64e:	36 02       	muls	r19, r22
 650:	00 00       	nop
 652:	00 00       	nop
 654:	14 00       	.word	0x0014	; ????
 656:	00 00       	nop
 658:	01 05       	cpc	r16, r1
 65a:	03 76       	andi	r16, 0x63	; 99
 65c:	00 80       	ld	r0, Z
 65e:	00 5e       	subi	r16, 0xE0	; 224
 660:	3d 02       	muls	r19, r29
 662:	00 00       	nop
 664:	00 00       	nop
 666:	1b 00       	.word	0x001b	; ????
 668:	00 00       	nop
 66a:	01 05       	cpc	r16, r1
 66c:	03 74       	andi	r16, 0x43	; 67
 66e:	00 80       	ld	r0, Z
 670:	00 5f       	subi	r16, 0xF0	; 240
 672:	43 02       	muls	r20, r19
 674:	00 00       	nop
 676:	00 00       	nop
 678:	14 00       	.word	0x0014	; ????
 67a:	00 00       	nop
 67c:	01 05       	cpc	r16, r1
 67e:	03 50       	subi	r16, 0x03	; 3
 680:	00 80       	ld	r0, Z
 682:	00 00       	nop
 684:	e0 01       	movw	r28, r0
 686:	00 00       	nop
 688:	02 00       	.word	0x0002	; ????
 68a:	2a 06       	cpc	r2, r26
 68c:	00 00       	nop
 68e:	04 01       	movw	r0, r8
 690:	78 02       	muls	r23, r24
 692:	00 00       	nop
 694:	01 91       	ld	r16, Z+
 696:	03 00       	.word	0x0003	; ????
	...
 6a4:	00 1a       	sub	r0, r16
 6a6:	00 00       	nop
 6a8:	00 02       	muls	r16, r16
 6aa:	01 06       	cpc	r0, r17
 6ac:	04 03       	mulsu	r16, r20
 6ae:	00 00       	nop
 6b0:	03 02       	muls	r16, r19
 6b2:	05 69       	ori	r16, 0x95	; 149
 6b4:	6e 74       	andi	r22, 0x4E	; 78
 6b6:	00 02       	muls	r16, r16
 6b8:	04 05       	cpc	r16, r4
 6ba:	11 04       	cpc	r1, r1
 6bc:	00 00       	nop
 6be:	02 08       	sbc	r0, r2
 6c0:	05 0c       	add	r0, r5
 6c2:	04 00       	.word	0x0004	; ????
 6c4:	00 02       	muls	r16, r16
 6c6:	01 08       	sbc	r0, r1
 6c8:	02 03       	mulsu	r16, r18
 6ca:	00 00       	nop
 6cc:	04 22       	and	r0, r20
 6ce:	04 00       	.word	0x0004	; ????
 6d0:	00 04       	cpc	r0, r0
 6d2:	31 53       	subi	r19, 0x31	; 49
 6d4:	00 00       	nop
 6d6:	00 02       	muls	r16, r16
 6d8:	02 07       	cpc	r16, r18
 6da:	84 03       	fmuls	r16, r20
 6dc:	00 00       	nop
 6de:	02 04       	cpc	r0, r2
 6e0:	07 7f       	andi	r16, 0xF7	; 247
 6e2:	03 00       	.word	0x0003	; ????
 6e4:	00 02       	muls	r16, r16
 6e6:	08 07       	cpc	r16, r24
 6e8:	7a 03       	fmul	r23, r18
 6ea:	00 00       	nop
 6ec:	04 f0       	brlt	.+0      	; 0x6ee <__stack+0x1ef>
 6ee:	03 00       	.word	0x0003	; ????
 6f0:	00 05       	cpc	r16, r0
 6f2:	38 41       	sbci	r19, 0x18	; 24
 6f4:	00 00       	nop
 6f6:	00 04       	cpc	r0, r0
 6f8:	e8 03       	fmulsu	r22, r16
 6fa:	00 00       	nop
 6fc:	05 39       	cpi	r16, 0x95	; 149
 6fe:	25 00       	.word	0x0025	; ????
 700:	00 00       	nop
 702:	04 70       	andi	r16, 0x04	; 4
 704:	03 00       	.word	0x0003	; ????
 706:	00 05       	cpc	r16, r0
 708:	40 53       	subi	r20, 0x30	; 48
 70a:	00 00       	nop
 70c:	00 04       	cpc	r0, r0
 70e:	1a 04       	cpc	r1, r10
 710:	00 00       	nop
 712:	02 3b       	cpi	r16, 0xB2	; 178
 714:	68 00       	.word	0x0068	; ????
 716:	00 00       	nop
 718:	04 1e       	adc	r0, r20
 71a:	03 00       	.word	0x0003	; ????
 71c:	00 02       	muls	r16, r16
 71e:	3c 73       	andi	r19, 0x3C	; 60
 720:	00 00       	nop
 722:	00 04       	cpc	r0, r0
 724:	4a 02       	muls	r20, r26
 726:	00 00       	nop
 728:	02 42       	sbci	r16, 0x22	; 34
 72a:	89 00       	.word	0x0089	; ????
 72c:	00 00       	nop
 72e:	05 10       	cpse	r0, r5
 730:	03 00       	.word	0x0003	; ????
 732:	00 02       	muls	r16, r16
 734:	53 00       	.word	0x0053	; ????
 736:	00 00       	nop
 738:	03 52       	subi	r16, 0x23	; 35
 73a:	cd 00       	.word	0x00cd	; ????
 73c:	00 00       	nop
 73e:	06 5d       	subi	r16, 0xD6	; 214
 740:	02 00       	.word	0x0002	; ????
 742:	00 00       	nop
 744:	06 41       	sbci	r16, 0x16	; 22
 746:	04 00       	.word	0x0004	; ????
 748:	00 01       	movw	r0, r0
 74a:	06 62       	ori	r16, 0x26	; 38
 74c:	03 00       	.word	0x0003	; ????
 74e:	00 02       	muls	r16, r16
 750:	00 07       	cpc	r16, r16
 752:	3f 03       	fmul	r19, r23
 754:	00 00       	nop
 756:	02 9a       	sbi	0x00, 2	; 0
 758:	01 01       	movw	r0, r2
 75a:	07 2e       	mov	r0, r23
 75c:	03 00       	.word	0x0003	; ????
 75e:	00 02       	muls	r16, r16
 760:	c3 01       	movw	r24, r6
 762:	01 08       	sbc	r0, r1
 764:	51 03       	mulsu	r21, r17
 766:	00 00       	nop
 768:	01 3e       	cpi	r16, 0xE1	; 225
 76a:	01 00       	.word	0x0001	; ????
	...
 774:	00 00       	nop
 776:	00 01       	movw	r0, r0
 778:	18 01       	movw	r2, r16
 77a:	00 00       	nop
 77c:	09 d6       	rcall	.+3090   	; 0x1390 <__stack+0xe91>
	...
 786:	00 00       	nop
 788:	00 01       	movw	r0, r0
 78a:	49 0a       	sbc	r4, r25
 78c:	cd 00       	.word	0x00cd	; ????
	...
 796:	00 00       	nop
 798:	02 c5       	rjmp	.+2564   	; 0x119e <__stack+0xc9f>
 79a:	00 00       	nop
 79c:	0b 01       	movw	r0, r22
 79e:	6b 02       	muls	r22, r27
 7a0:	00 00       	nop
 7a2:	03 62       	ori	r16, 0x23	; 35
 7a4:	01 7e       	andi	r16, 0xE1	; 225
 7a6:	00 00       	nop
 7a8:	00 a8       	ldd	r0, Z+48	; 0x30
 7aa:	00 00       	nop
 7ac:	00 c0       	rjmp	.+0      	; 0x7ae <__stack+0x2af>
 7ae:	00 00       	nop
 7b0:	00 3b       	cpi	r16, 0xB0	; 176
 7b2:	00 00       	nop
 7b4:	00 01       	movw	r0, r0
 7b6:	0c 01       	movw	r0, r24
 7b8:	f9 03       	fmulsu	r23, r17
 7ba:	00 00       	nop
 7bc:	03 72       	andi	r16, 0x23	; 35
 7be:	01 00       	.word	0x0001	; ????
 7c0:	00 00       	nop
 7c2:	00 00       	nop
 7c4:	00 00       	nop
 7c6:	00 76       	andi	r16, 0x60	; 96
 7c8:	00 00       	nop
 7ca:	00 01       	movw	r0, r0
 7cc:	0d 01       	movw	r0, r26
 7ce:	5d 03       	fmul	r21, r21
 7d0:	00 00       	nop
 7d2:	03 7a       	andi	r16, 0xA3	; 163
 7d4:	01 2c       	mov	r0, r1
 7d6:	00 00       	nop
 7d8:	00 c0       	rjmp	.+0      	; 0x7da <__stack+0x2db>
 7da:	00 00       	nop
 7dc:	00 2e       	mov	r0, r16
 7de:	01 00       	.word	0x0001	; ????
 7e0:	00 b1       	in	r16, 0x00	; 0
 7e2:	00 00       	nop
 7e4:	00 01       	movw	r0, r0
 7e6:	75 01       	movw	r14, r10
 7e8:	00 00       	nop
 7ea:	0e 26       	eor	r0, r30
 7ec:	03 00       	.word	0x0003	; ????
 7ee:	00 03       	mulsu	r16, r16
 7f0:	7c 7e       	andi	r23, 0xEC	; 236
 7f2:	00 00       	nop
 7f4:	00 02       	muls	r16, r16
 7f6:	8c 01       	movw	r16, r24
 7f8:	00 0f       	add	r16, r16
 7fa:	73 00       	.word	0x0073	; ????
 7fc:	00 00       	nop
 7fe:	85 01       	movw	r16, r10
 800:	00 00       	nop
 802:	10 85       	ldd	r17, Z+8	; 0x08
 804:	01 00       	.word	0x0001	; ????
 806:	00 01       	movw	r0, r0
 808:	00 02       	muls	r16, r16
 80a:	02 07       	cpc	r16, r18
 80c:	03 04       	cpc	r0, r3
 80e:	00 00       	nop
 810:	11 2b       	or	r17, r17
 812:	04 00       	.word	0x0004	; ????
 814:	00 03       	mulsu	r16, r16
 816:	57 75       	andi	r21, 0x57	; 87
 818:	01 00       	.word	0x0001	; ????
 81a:	00 01       	movw	r0, r0
 81c:	05 03       	mulsu	r16, r21
 81e:	04 01       	movw	r0, r8
 820:	80 00       	.word	0x0080	; ????
 822:	11 56       	subi	r17, 0x61	; 97
 824:	02 00       	.word	0x0002	; ????
 826:	00 03       	mulsu	r16, r16
 828:	5a b0       	in	r5, 0x0a	; 10
 82a:	01 00       	.word	0x0001	; ????
 82c:	00 01       	movw	r0, r0
 82e:	05 03       	mulsu	r16, r21
 830:	06 01       	movw	r0, r12
 832:	80 00       	.word	0x0080	; ????
 834:	12 73       	andi	r17, 0x32	; 50
 836:	00 00       	nop
 838:	00 11       	cpse	r16, r0
 83a:	fa 02       	muls	r31, r26
 83c:	00 00       	nop
 83e:	03 5d       	subi	r16, 0xD3	; 211
 840:	c7 01       	movw	r24, r14
 842:	00 00       	nop
 844:	01 05       	cpc	r16, r1
 846:	03 00       	.word	0x0003	; ????
 848:	01 80       	ldd	r0, Z+1	; 0x01
 84a:	00 12       	cpse	r0, r16
 84c:	2c 00       	.word	0x002c	; ????
 84e:	00 00       	nop
 850:	11 39       	cpi	r17, 0x91	; 145
 852:	04 00       	.word	0x0004	; ????
 854:	00 03       	mulsu	r16, r16
 856:	60 de       	rcall	.-832    	; 0x518 <__stack+0x19>
 858:	01 00       	.word	0x0001	; ????
 85a:	00 01       	movw	r0, r0
 85c:	05 03       	mulsu	r16, r21
 85e:	02 01       	movw	r0, r4
 860:	80 00       	.word	0x0080	; ????
 862:	12 7e       	andi	r17, 0xE2	; 226
 864:	00 00       	nop
 866:	00 00       	nop
 868:	19 02       	muls	r17, r25
 86a:	00 00       	nop
 86c:	02 00       	.word	0x0002	; ????
 86e:	47 07       	cpc	r20, r23
 870:	00 00       	nop
 872:	04 01       	movw	r0, r8
 874:	78 02       	muls	r23, r24
 876:	00 00       	nop
 878:	01 50       	subi	r16, 0x01	; 1
 87a:	04 00       	.word	0x0004	; ????
 87c:	00 28       	or	r0, r0
	...
 886:	00 00       	nop
 888:	00 55       	subi	r16, 0x50	; 80
 88a:	02 00       	.word	0x0002	; ????
 88c:	00 02       	muls	r16, r16
 88e:	01 06       	cpc	r0, r17
 890:	04 03       	mulsu	r16, r20
 892:	00 00       	nop
 894:	03 02       	muls	r16, r19
 896:	05 69       	ori	r16, 0x95	; 149
 898:	6e 74       	andi	r22, 0x4E	; 78
 89a:	00 02       	muls	r16, r16
 89c:	04 05       	cpc	r16, r4
 89e:	11 04       	cpc	r1, r1
 8a0:	00 00       	nop
 8a2:	02 08       	sbc	r0, r2
 8a4:	05 0c       	add	r0, r5
 8a6:	04 00       	.word	0x0004	; ????
 8a8:	00 02       	muls	r16, r16
 8aa:	01 08       	sbc	r0, r1
 8ac:	02 03       	mulsu	r16, r18
 8ae:	00 00       	nop
 8b0:	02 02       	muls	r16, r18
 8b2:	07 84       	ldd	r0, Z+15	; 0x0f
 8b4:	03 00       	.word	0x0003	; ????
 8b6:	00 02       	muls	r16, r16
 8b8:	04 07       	cpc	r16, r20
 8ba:	7f 03       	fmul	r23, r23
 8bc:	00 00       	nop
 8be:	02 08       	sbc	r0, r2
 8c0:	07 7a       	andi	r16, 0xA7	; 167
 8c2:	03 00       	.word	0x0003	; ????
 8c4:	00 04       	cpc	r0, r0
 8c6:	e8 03       	fmulsu	r22, r16
 8c8:	00 00       	nop
 8ca:	04 39       	cpi	r16, 0x94	; 148
 8cc:	25 00       	.word	0x0025	; ????
 8ce:	00 00       	nop
 8d0:	04 1e       	adc	r0, r20
 8d2:	03 00       	.word	0x0003	; ????
 8d4:	00 02       	muls	r16, r16
 8d6:	3c 5d       	subi	r19, 0xDC	; 220
 8d8:	00 00       	nop
 8da:	00 05       	cpc	r16, r0
 8dc:	3f 03       	fmul	r19, r23
 8de:	00 00       	nop
 8e0:	02 9a       	sbi	0x00, 2	; 0
 8e2:	01 01       	movw	r0, r2
 8e4:	05 2e       	mov	r0, r21
 8e6:	03 00       	.word	0x0003	; ????
 8e8:	00 02       	muls	r16, r16
 8ea:	c3 01       	movw	r24, r6
 8ec:	01 06       	cpc	r0, r17
 8ee:	51 03       	mulsu	r21, r17
 8f0:	00 00       	nop
 8f2:	01 3e       	cpi	r16, 0xE1	; 225
 8f4:	01 00       	.word	0x0001	; ????
 8f6:	00 00       	nop
 8f8:	00 00       	nop
 8fa:	00 00       	nop
 8fc:	00 f9       	bld	r16, 0
 8fe:	00 00       	nop
 900:	00 01       	movw	r0, r0
 902:	be 00       	.word	0x00be	; ????
 904:	00 00       	nop
 906:	07 7c       	andi	r16, 0xC7	; 199
	...
 910:	00 00       	nop
 912:	00 01       	movw	r0, r0
 914:	49 08       	sbc	r4, r9
 916:	73 00       	.word	0x0073	; ????
	...
 920:	00 00       	nop
 922:	02 c5       	rjmp	.+2564   	; 0x1328 <__stack+0xe29>
 924:	00 00       	nop
 926:	09 01       	movw	r0, r18
 928:	a7 04       	cpc	r10, r7
 92a:	00 00       	nop
 92c:	03 31       	cpi	r16, 0x13	; 19
 92e:	01 5d       	subi	r16, 0xD1	; 209
 930:	00 00       	nop
 932:	00 2e       	mov	r0, r16
 934:	01 00       	.word	0x0001	; ????
 936:	00 f2       	brcs	.-128    	; 0x8b8 <__stack+0x3b9>
 938:	01 00       	.word	0x0001	; ????
 93a:	00 34       	cpi	r16, 0x40	; 64
 93c:	01 00       	.word	0x0001	; ????
 93e:	00 01       	movw	r0, r0
 940:	06 01       	movw	r0, r12
 942:	00 00       	nop
 944:	0a 69       	ori	r16, 0x9A	; 154
 946:	64 00       	.word	0x0064	; ????
 948:	03 31       	cpi	r16, 0x13	; 19
 94a:	68 00       	.word	0x0068	; ????
 94c:	00 00       	nop
 94e:	02 8c       	ldd	r0, Z+26	; 0x1a
 950:	01 0b       	sbc	r16, r17
 952:	c6 04       	cpc	r12, r6
 954:	00 00       	nop
 956:	03 32       	cpi	r16, 0x23	; 35
 958:	2c 00       	.word	0x002c	; ????
 95a:	00 00       	nop
 95c:	02 8c       	ldd	r0, Z+26	; 0x1a
 95e:	02 0b       	sbc	r16, r18
 960:	f6 04       	cpc	r15, r6
 962:	00 00       	nop
 964:	03 33       	cpi	r16, 0x33	; 51
 966:	68 00       	.word	0x0068	; ????
 968:	00 00       	nop
 96a:	02 8c       	ldd	r0, Z+26	; 0x1a
 96c:	04 00       	.word	0x0004	; ????
 96e:	09 01       	movw	r0, r18
 970:	cb 04       	cpc	r12, r11
 972:	00 00       	nop
 974:	03 55       	subi	r16, 0x53	; 83
 976:	01 5d       	subi	r16, 0xD1	; 209
	...
 980:	00 00       	nop
 982:	00 7c       	andi	r16, 0xC0	; 192
 984:	01 00       	.word	0x0001	; ????
 986:	00 01       	movw	r0, r0
 988:	4e 01       	movw	r8, r28
 98a:	00 00       	nop
 98c:	0a 69       	ori	r16, 0x9A	; 154
 98e:	64 00       	.word	0x0064	; ????
 990:	03 55       	subi	r16, 0x53	; 83
 992:	68 00       	.word	0x0068	; ????
 994:	00 00       	nop
 996:	02 8c       	ldd	r0, Z+26	; 0x1a
 998:	01 0b       	sbc	r16, r17
 99a:	9b 04       	cpc	r9, r11
 99c:	00 00       	nop
 99e:	03 56       	subi	r16, 0x63	; 99
 9a0:	68 00       	.word	0x0068	; ????
 9a2:	00 00       	nop
 9a4:	02 8c       	ldd	r0, Z+26	; 0x1a
 9a6:	02 0b       	sbc	r16, r18
 9a8:	a1 04       	cpc	r10, r1
 9aa:	00 00       	nop
 9ac:	03 57       	subi	r16, 0x73	; 115
 9ae:	68 00       	.word	0x0068	; ????
 9b0:	00 00       	nop
 9b2:	02 8c       	ldd	r0, Z+26	; 0x1a
 9b4:	03 00       	.word	0x0003	; ????
 9b6:	09 01       	movw	r0, r18
 9b8:	d8 04       	cpc	r13, r8
 9ba:	00 00       	nop
 9bc:	03 6c       	ori	r16, 0xC3	; 195
 9be:	01 5d       	subi	r16, 0xD1	; 209
	...
 9c8:	00 00       	nop
 9ca:	00 c4       	rjmp	.+2048   	; 0x11cc <__stack+0xccd>
 9cc:	01 00       	.word	0x0001	; ????
 9ce:	00 01       	movw	r0, r0
 9d0:	96 01       	movw	r18, r12
 9d2:	00 00       	nop
 9d4:	0a 69       	ori	r16, 0x9A	; 154
 9d6:	64 00       	.word	0x0064	; ????
 9d8:	03 6c       	ori	r16, 0xC3	; 195
 9da:	68 00       	.word	0x0068	; ????
 9dc:	00 00       	nop
 9de:	02 8c       	ldd	r0, Z+26	; 0x1a
 9e0:	01 0b       	sbc	r16, r17
 9e2:	9b 04       	cpc	r9, r11
 9e4:	00 00       	nop
 9e6:	03 6d       	ori	r16, 0xD3	; 211
 9e8:	68 00       	.word	0x0068	; ????
 9ea:	00 00       	nop
 9ec:	02 8c       	ldd	r0, Z+26	; 0x1a
 9ee:	02 0b       	sbc	r16, r18
 9f0:	a1 04       	cpc	r10, r1
 9f2:	00 00       	nop
 9f4:	03 6e       	ori	r16, 0xE3	; 227
 9f6:	68 00       	.word	0x0068	; ????
 9f8:	00 00       	nop
 9fa:	02 8c       	ldd	r0, Z+26	; 0x1a
 9fc:	03 00       	.word	0x0003	; ????
 9fe:	09 01       	movw	r0, r18
 a00:	e6 04       	cpc	r14, r6
 a02:	00 00       	nop
 a04:	03 83       	std	Z+3, r16	; 0x03
 a06:	01 5d       	subi	r16, 0xD1	; 209
 a08:	00 00       	nop
 a0a:	00 f2       	brcs	.-128    	; 0x98c <__stack+0x48d>
 a0c:	01 00       	.word	0x0001	; ????
 a0e:	00 64       	ori	r16, 0x40	; 64
 a10:	02 00       	.word	0x0002	; ????
 a12:	00 0c       	add	r0, r0
 a14:	02 00       	.word	0x0002	; ????
 a16:	00 01       	movw	r0, r0
 a18:	ea 01       	movw	r28, r20
 a1a:	00 00       	nop
 a1c:	0a 69       	ori	r16, 0x9A	; 154
 a1e:	64 00       	.word	0x0064	; ????
 a20:	03 83       	std	Z+3, r16	; 0x03
 a22:	68 00       	.word	0x0068	; ????
 a24:	00 00       	nop
 a26:	02 8c       	ldd	r0, Z+26	; 0x1a
 a28:	02 0b       	sbc	r16, r18
 a2a:	b1 04       	cpc	r11, r1
 a2c:	00 00       	nop
 a2e:	03 84       	ldd	r0, Z+11	; 0x0b
 a30:	68 00       	.word	0x0068	; ????
 a32:	00 00       	nop
 a34:	02 8c       	ldd	r0, Z+26	; 0x1a
 a36:	03 0a       	sbc	r0, r19
 a38:	65 6e       	ori	r22, 0xE5	; 229
 a3a:	64 00       	.word	0x0064	; ????
 a3c:	03 85       	ldd	r16, Z+11	; 0x0b
 a3e:	68 00       	.word	0x0068	; ????
 a40:	00 00       	nop
 a42:	02 8c       	ldd	r0, Z+26	; 0x1a
 a44:	04 0c       	add	r0, r4
 a46:	69 00       	.word	0x0069	; ????
 a48:	03 87       	std	Z+11, r16	; 0x0b
 a4a:	68 00       	.word	0x0068	; ????
 a4c:	00 00       	nop
 a4e:	02 8c       	ldd	r0, Z+26	; 0x1a
 a50:	01 00       	.word	0x0001	; ????
 a52:	0d 01       	movw	r0, r26
 a54:	b7 04       	cpc	r11, r7
 a56:	00 00       	nop
 a58:	03 96       	adiw	r24, 0x03	; 3
 a5a:	01 5d       	subi	r16, 0xD1	; 209
 a5c:	00 00       	nop
 a5e:	00 64       	ori	r16, 0x40	; 64
 a60:	02 00       	.word	0x0002	; ????
 a62:	00 76       	andi	r16, 0x60	; 96
 a64:	02 00       	.word	0x0002	; ????
 a66:	00 54       	subi	r16, 0x40	; 64
 a68:	02 00       	.word	0x0002	; ????
 a6a:	00 01       	movw	r0, r0
 a6c:	0e 5d       	subi	r16, 0xDE	; 222
 a6e:	00 00       	nop
 a70:	00 0f       	add	r16, r16
 a72:	02 00       	.word	0x0002	; ????
 a74:	00 0f       	add	r16, r16
 a76:	00 10       	cpse	r0, r0
 a78:	2b 04       	cpc	r2, r11
 a7a:	00 00       	nop
 a7c:	05 97       	sbiw	r24, 0x05	; 5
 a7e:	04 02       	muls	r16, r20
 a80:	00 00       	nop
 a82:	01 01       	movw	r0, r2
 a84:	00 d9       	rcall	.-3584   	; 0xfffffc86 <__eeprom_end+0xff7efc86>
 a86:	02 00       	.word	0x0002	; ????
 a88:	00 02       	muls	r16, r16
 a8a:	00 45       	sbci	r16, 0x50	; 80
 a8c:	08 00       	.word	0x0008	; ????
 a8e:	00 04       	cpc	r0, r0
 a90:	01 78       	andi	r16, 0x81	; 129
 a92:	02 00       	.word	0x0002	; ????
 a94:	00 01       	movw	r0, r0
 a96:	7c 05       	cpc	r23, r12
 a98:	00 00       	nop
 a9a:	60 00       	.word	0x0060	; ????
	...
 aa4:	00 00       	nop
 aa6:	b4 05       	cpc	r27, r4
 aa8:	00 00       	nop
 aaa:	02 01       	movw	r0, r4
 aac:	06 04       	cpc	r0, r6
 aae:	03 00       	.word	0x0003	; ????
 ab0:	00 03       	mulsu	r16, r16
 ab2:	02 05       	cpc	r16, r2
 ab4:	69 6e       	ori	r22, 0xE9	; 233
 ab6:	74 00       	.word	0x0074	; ????
 ab8:	02 04       	cpc	r0, r2
 aba:	05 11       	cpse	r16, r5
 abc:	04 00       	.word	0x0004	; ????
 abe:	00 02       	muls	r16, r16
 ac0:	08 05       	cpc	r16, r8
 ac2:	0c 04       	cpc	r0, r12
 ac4:	00 00       	nop
 ac6:	04 29       	or	r16, r4
 ac8:	06 00       	.word	0x0006	; ????
 aca:	00 06       	cpc	r0, r16
 acc:	2e 4c       	sbci	r18, 0xCE	; 206
 ace:	00 00       	nop
 ad0:	00 02       	muls	r16, r16
 ad2:	01 08       	sbc	r0, r1
 ad4:	02 03       	mulsu	r16, r18
 ad6:	00 00       	nop
 ad8:	02 02       	muls	r16, r18
 ada:	07 84       	ldd	r0, Z+15	; 0x0f
 adc:	03 00       	.word	0x0003	; ????
 ade:	00 02       	muls	r16, r16
 ae0:	04 07       	cpc	r16, r20
 ae2:	7f 03       	fmul	r23, r23
 ae4:	00 00       	nop
 ae6:	02 08       	sbc	r0, r2
 ae8:	07 7a       	andi	r16, 0xA7	; 167
 aea:	03 00       	.word	0x0003	; ????
 aec:	00 04       	cpc	r0, r0
 aee:	f0 03       	fmuls	r23, r16
 af0:	00 00       	nop
 af2:	07 38       	cpi	r16, 0x87	; 135
 af4:	4c 00       	.word	0x004c	; ????
 af6:	00 00       	nop
 af8:	04 e8       	ldi	r16, 0x84	; 132
 afa:	03 00       	.word	0x0003	; ????
 afc:	00 07       	cpc	r16, r16
 afe:	39 25       	eor	r19, r9
 b00:	00 00       	nop
 b02:	00 04       	cpc	r0, r0
 b04:	1a 04       	cpc	r1, r10
 b06:	00 00       	nop
 b08:	02 3b       	cpi	r16, 0xB2	; 178
 b0a:	68 00       	.word	0x0068	; ????
 b0c:	00 00       	nop
 b0e:	04 1e       	adc	r0, r20
 b10:	03 00       	.word	0x0003	; ????
 b12:	00 02       	muls	r16, r16
 b14:	3c 73       	andi	r19, 0x3C	; 60
 b16:	00 00       	nop
 b18:	00 04       	cpc	r0, r0
 b1a:	21 06       	cpc	r2, r17
 b1c:	00 00       	nop
 b1e:	02 3d       	cpi	r16, 0xD2	; 210
 b20:	68 00       	.word	0x0068	; ????
 b22:	00 00       	nop
 b24:	04 45       	sbci	r16, 0x54	; 84
 b26:	05 00       	.word	0x0005	; ????
 b28:	00 02       	muls	r16, r16
 b2a:	50 89       	ldd	r21, Z+16	; 0x10
 b2c:	00 00       	nop
 b2e:	00 05       	cpc	r16, r0
 b30:	cd 05       	cpc	r28, r13
 b32:	00 00       	nop
 b34:	02 a2       	std	Z+34, r0	; 0x22
 b36:	01 01       	movw	r0, r2
 b38:	05 3f       	cpi	r16, 0xF5	; 245
 b3a:	03 00       	.word	0x0003	; ????
 b3c:	00 02       	muls	r16, r16
 b3e:	9a 01       	movw	r18, r20
 b40:	01 06       	cpc	r0, r17
 b42:	f5 05       	cpc	r31, r5
 b44:	00 00       	nop
 b46:	02 aa       	std	Z+50, r0	; 0x32
 b48:	94 00       	.word	0x0094	; ????
 b4a:	00 00       	nop
 b4c:	01 d7       	rcall	.+3586   	; 0x1950 <__stack+0x1451>
 b4e:	00 00       	nop
 b50:	00 07       	cpc	r16, r16
 b52:	73 72       	andi	r23, 0x23	; 35
 b54:	00 02       	muls	r16, r16
 b56:	ac 94 00 00 	jmp	0x280000	; 0x280000 <__EEPROM_REGION_LENGTH__+0x270000>
 b5a:	00 00       	nop
 b5c:	08 8a       	std	Y+16, r0	; 0x10
 b5e:	06 00       	.word	0x0006	; ????
 b60:	00 02       	muls	r16, r16
 b62:	b4 01       	movw	r22, r8
 b64:	01 ef       	ldi	r16, 0xF1	; 241
 b66:	00 00       	nop
 b68:	00 09       	sbc	r16, r0
 b6a:	73 72       	andi	r23, 0x23	; 35
 b6c:	00 02       	muls	r16, r16
 b6e:	b4 94       	.word	0x94b4	; ????
 b70:	00 00       	nop
 b72:	00 00       	nop
 b74:	0a 33       	cpi	r16, 0x3A	; 58
 b76:	05 00       	.word	0x0005	; ????
 b78:	00 02       	muls	r16, r16
 b7a:	ce 01       	movw	r24, r28
 b7c:	94 00       	.word	0x0094	; ????
 b7e:	00 00       	nop
 b80:	01 08       	sbc	r0, r1
 b82:	79 06       	cpc	r7, r25
 b84:	00 00       	nop
 b86:	02 d3       	rcall	.+1540   	; 0x118c <__stack+0xc8d>
 b88:	01 01       	movw	r0, r2
 b8a:	15 01       	movw	r2, r10
 b8c:	00 00       	nop
 b8e:	0b 73       	andi	r16, 0x3B	; 59
 b90:	06 00       	.word	0x0006	; ????
 b92:	00 02       	muls	r16, r16
 b94:	d3 94       	inc	r13
 b96:	00 00       	nop
 b98:	00 00       	nop
 b9a:	08 5d       	subi	r16, 0xD8	; 216
 b9c:	06 00       	.word	0x0006	; ????
 b9e:	00 03       	mulsu	r16, r16
 ba0:	89 01       	movw	r16, r18
 ba2:	01 2e       	mov	r0, r17
 ba4:	01 00       	.word	0x0001	; ????
 ba6:	00 09       	sbc	r16, r0
 ba8:	74 69       	ori	r23, 0x94	; 148
 baa:	64 00       	.word	0x0064	; ????
 bac:	03 89       	ldd	r16, Z+19	; 0x13
 bae:	9f 00       	.word	0x009f	; ????
 bb0:	00 00       	nop
 bb2:	00 05       	cpc	r16, r0
 bb4:	2e 03       	fmul	r18, r22
 bb6:	00 00       	nop
 bb8:	02 c3       	rjmp	.+1540   	; 0x11be <__stack+0xcbf>
 bba:	01 01       	movw	r0, r2
 bbc:	0c 4c       	sbci	r16, 0xCC	; 204
 bbe:	05 00       	.word	0x0005	; ????
 bc0:	00 01       	movw	r0, r0
 bc2:	55 01       	movw	r10, r10
 bc4:	94 00       	.word	0x0094	; ????
	...
 bce:	00 00       	nop
 bd0:	8f 02       	muls	r24, r31
 bd2:	00 00       	nop
 bd4:	01 95       	neg	r16
 bd6:	01 00       	.word	0x0001	; ????
 bd8:	00 0d       	add	r16, r0
 bda:	ef 00       	.word	0x00ef	; ????
	...
 be4:	00 00       	nop
 be6:	01 57       	subi	r16, 0x71	; 113
 be8:	0d bc       	out	0x2d, r0	; 45
	...
 bf2:	00 00       	nop
 bf4:	00 02       	muls	r16, r16
 bf6:	d0 0e       	add	r13, r16
	...
 c00:	0f cc       	rjmp	.-2018   	; 0x420 <__LOCK_REGION_LENGTH__+0x20>
 c02:	00 00       	nop
 c04:	00 01       	movw	r0, r0
 c06:	61 10       	cpse	r6, r1
 c08:	aa 00       	.word	0x00aa	; ????
	...
 c12:	00 00       	nop
 c14:	02 ad       	ldd	r16, Z+58	; 0x3a
 c16:	00 00       	nop
 c18:	00 00       	nop
 c1a:	11 0c       	add	r1, r1
 c1c:	05 00       	.word	0x0005	; ????
 c1e:	00 01       	movw	r0, r0
 c20:	5f 01       	movw	r10, r30
	...
 c2a:	d7 02       	muls	r29, r23
 c2c:	00 00       	nop
 c2e:	01 eb       	ldi	r16, 0xB1	; 177
 c30:	01 00       	.word	0x0001	; ????
 c32:	00 12       	cpse	r0, r16
 c34:	66 00       	.word	0x0066	; ????
 c36:	01 5f       	subi	r16, 0xF1	; 241
 c38:	94 00       	.word	0x0094	; ????
 c3a:	00 00       	nop
 c3c:	02 8c       	ldd	r0, Z+26	; 0x1a
 c3e:	03 0d       	add	r16, r3
 c40:	fc 00       	.word	0x00fc	; ????
	...
 c4a:	00 00       	nop
 c4c:	01 61       	ori	r16, 0x11	; 17
 c4e:	13 09       	sbc	r17, r3
 c50:	01 00       	.word	0x0001	; ????
 c52:	00 02       	muls	r16, r16
 c54:	8c 01       	movw	r16, r24
 c56:	0d d7       	rcall	.+3610   	; 0x1a72 <__stack+0x1573>
	...
 c60:	00 00       	nop
 c62:	00 02       	muls	r16, r16
 c64:	d5 13       	cpse	r29, r21
 c66:	e4 00       	.word	0x00e4	; ????
 c68:	00 00       	nop
 c6a:	02 8c       	ldd	r0, Z+26	; 0x1a
 c6c:	02 00       	.word	0x0002	; ????
 c6e:	00 00       	nop
 c70:	14 e0       	ldi	r17, 0x04	; 4
 c72:	05 00       	.word	0x0005	; ????
 c74:	00 03       	mulsu	r16, r16
 c76:	d3 01       	movw	r26, r6
	...
 c80:	1f 03       	fmul	r17, r23
 c82:	00 00       	nop
 c84:	01 2b       	or	r16, r17
 c86:	02 00       	.word	0x0002	; ????
 c88:	00 12       	cpse	r0, r16
 c8a:	74 69       	ori	r23, 0x94	; 148
 c8c:	64 00       	.word	0x0064	; ????
 c8e:	03 d3       	rcall	.+1542   	; 0x1296 <__stack+0xd97>
 c90:	9f 00       	.word	0x009f	; ????
 c92:	00 00       	nop
 c94:	02 8c       	ldd	r0, Z+26	; 0x1a
 c96:	02 0d       	add	r16, r2
 c98:	15 01       	movw	r2, r10
	...
 ca2:	00 00       	nop
 ca4:	03 d5       	rcall	.+2566   	; 0x16ac <__stack+0x11ad>
 ca6:	13 22       	and	r1, r19
 ca8:	01 00       	.word	0x0001	; ????
 caa:	00 02       	muls	r16, r16
 cac:	8c 01       	movw	r16, r24
 cae:	00 00       	nop
 cb0:	14 51       	subi	r17, 0x14	; 20
 cb2:	03 00       	.word	0x0003	; ????
 cb4:	00 04       	cpc	r0, r0
 cb6:	3e 01       	movw	r6, r28
	...
 cc0:	67 03       	mulsu	r22, r23
 cc2:	00 00       	nop
 cc4:	01 64       	ori	r16, 0x41	; 65
 cc6:	02 00       	.word	0x0002	; ????
 cc8:	00 0d       	add	r16, r0
 cca:	2e 01       	movw	r4, r28
	...
 cd4:	00 00       	nop
 cd6:	04 49       	sbci	r16, 0x94	; 148
 cd8:	10 b3       	in	r17, 0x10	; 16
	...
 ce2:	00 00       	nop
 ce4:	00 02       	muls	r16, r16
 ce6:	c5 00       	.word	0x00c5	; ????
 ce8:	00 15       	cp	r16, r0
 cea:	01 fb       	bst	r16, 1
 cec:	04 00       	.word	0x0004	; ????
 cee:	00 05       	cpc	r16, r0
 cf0:	35 01       	movw	r6, r10
 cf2:	76 02       	muls	r23, r22
 cf4:	00 00       	nop
 cf6:	7a 02       	muls	r23, r26
 cf8:	00 00       	nop
 cfa:	03 92       	.word	0x9203	; ????
 cfc:	20 02       	muls	r18, r16
 cfe:	01 16       	cp	r0, r17
 d00:	01 6a       	ori	r16, 0xA1	; 161
 d02:	05 00       	.word	0x0005	; ????
 d04:	00 05       	cpc	r16, r0
 d06:	38 01       	movw	r6, r16
	...
 d10:	a2 03       	fmuls	r18, r18
 d12:	00 00       	nop
 d14:	01 17       	cp	r16, r17
 d16:	3c 06       	cpc	r3, r28
 d18:	00 00       	nop
 d1a:	08 3f       	cpi	r16, 0xF8	; 248
 d1c:	7e 00       	.word	0x007e	; ????
 d1e:	00 00       	nop
 d20:	01 01       	movw	r0, r2
 d22:	17 08       	sbc	r1, r7
 d24:	06 00       	.word	0x0006	; ????
 d26:	00 03       	mulsu	r16, r16
 d28:	43 9f       	mul	r20, r19
 d2a:	00 00       	nop
 d2c:	00 01       	movw	r0, r0
 d2e:	01 18       	sub	r0, r1
 d30:	9f 00       	.word	0x009f	; ????
 d32:	00 00       	nop
 d34:	b5 02       	muls	r27, r21
 d36:	00 00       	nop
 d38:	19 00       	.word	0x0019	; ????
 d3a:	17 28       	or	r1, r7
 d3c:	05 00       	.word	0x0005	; ????
 d3e:	00 09       	sbc	r16, r0
 d40:	71 aa       	std	Z+49, r7	; 0x31
 d42:	02 00       	.word	0x0002	; ????
 d44:	00 01       	movw	r0, r0
 d46:	01 17       	cp	r16, r17
 d48:	31 06       	cpc	r3, r17
 d4a:	00 00       	nop
 d4c:	09 77       	andi	r16, 0x79	; 121
 d4e:	9f 00       	.word	0x009f	; ????
 d50:	00 00       	nop
 d52:	01 01       	movw	r0, r2
 d54:	17 51       	subi	r17, 0x17	; 23
 d56:	06 00       	.word	0x0006	; ????
 d58:	00 09       	sbc	r16, r0
 d5a:	7a 9f       	mul	r23, r26
 d5c:	00 00       	nop
 d5e:	00 01       	movw	r0, r0
 d60:	01 00       	.word	0x0001	; ????

Disassembly of section .debug_abbrev:

00000000 <.debug_abbrev>:
   0:	01 11       	cpse	r16, r1
   2:	01 25       	eor	r16, r1
   4:	0e 10       	cpse	r0, r14
   6:	06 00       	.word	0x0006	; ????
   8:	00 02       	muls	r16, r16
   a:	24 00       	.word	0x0024	; ????
   c:	03 0e       	add	r0, r19
   e:	0b 0b       	sbc	r16, r27
  10:	3e 0b       	sbc	r19, r30
  12:	00 00       	nop
  14:	03 24       	eor	r0, r3
  16:	00 03       	mulsu	r16, r16
  18:	0e 0b       	sbc	r16, r30
  1a:	0b 3e       	cpi	r16, 0xEB	; 235
  1c:	0b 00       	.word	0x000b	; ????
  1e:	00 04       	cpc	r0, r0
  20:	01 01       	movw	r0, r2
  22:	49 13       	cpse	r20, r25
  24:	00 00       	nop
  26:	05 21       	and	r16, r5
  28:	00 49       	sbci	r16, 0x90	; 144
  2a:	13 2f       	mov	r17, r19
  2c:	05 00       	.word	0x0005	; ????
  2e:	00 06       	cpc	r0, r16
  30:	34 00       	.word	0x0034	; ????
  32:	03 0e       	add	r0, r19
  34:	3a 0b       	sbc	r19, r26
  36:	3b 0b       	sbc	r19, r27
  38:	49 13       	cpse	r20, r25
  3a:	3f 0c       	add	r3, r15
  3c:	02 0a       	sbc	r0, r18
  3e:	00 00       	nop
  40:	07 34       	cpi	r16, 0x47	; 71
  42:	00 03       	mulsu	r16, r16
  44:	0e 3a       	cpi	r16, 0xAE	; 174
  46:	0b 3b       	cpi	r16, 0xBB	; 187
  48:	0b 49       	sbci	r16, 0x9B	; 155
  4a:	13 3f       	cpi	r17, 0xF3	; 243
  4c:	0c 02       	muls	r16, r28
  4e:	0a 00       	.word	0x000a	; ????
  50:	00 08       	sbc	r0, r0
  52:	34 00       	.word	0x0034	; ????
  54:	03 0e       	add	r0, r19
  56:	3a 0b       	sbc	r19, r26
  58:	3b 0b       	sbc	r19, r27
  5a:	49 13       	cpse	r20, r25
  5c:	3f 0c       	add	r3, r15
  5e:	02 0a       	sbc	r0, r18
  60:	00 00       	nop
  62:	09 34       	cpi	r16, 0x49	; 73
  64:	00 03       	mulsu	r16, r16
  66:	0e 3a       	cpi	r16, 0xAE	; 174
  68:	0b 3b       	cpi	r16, 0xBB	; 187
  6a:	0b 49       	sbci	r16, 0x9B	; 155
  6c:	13 3f       	cpi	r17, 0xF3	; 243
  6e:	0c 02       	muls	r16, r28
  70:	0a 00       	.word	0x000a	; ????
  72:	00 0a       	sbc	r0, r16
  74:	34 00       	.word	0x0034	; ????
  76:	03 0e       	add	r0, r19
  78:	3a 0b       	sbc	r19, r26
  7a:	3b 0b       	sbc	r19, r27
  7c:	49 13       	cpse	r20, r25
  7e:	3f 0c       	add	r3, r15
  80:	02 0a       	sbc	r0, r18
  82:	00 00       	nop
  84:	0b 34       	cpi	r16, 0x4B	; 75
  86:	00 03       	mulsu	r16, r16
  88:	0e 3a       	cpi	r16, 0xAE	; 174
  8a:	0b 3b       	cpi	r16, 0xBB	; 187
  8c:	0b 49       	sbci	r16, 0x9B	; 155
  8e:	13 3f       	cpi	r17, 0xF3	; 243
  90:	0c 02       	muls	r16, r28
  92:	0a 00       	.word	0x000a	; ????
  94:	00 0c       	add	r0, r0
  96:	34 00       	.word	0x0034	; ????
  98:	03 0e       	add	r0, r19
  9a:	3a 0b       	sbc	r19, r26
  9c:	3b 0b       	sbc	r19, r27
  9e:	49 13       	cpse	r20, r25
  a0:	3f 0c       	add	r3, r15
  a2:	02 0a       	sbc	r0, r18
  a4:	00 00       	nop
  a6:	0d 34       	cpi	r16, 0x4D	; 77
  a8:	00 03       	mulsu	r16, r16
  aa:	0e 3a       	cpi	r16, 0xAE	; 174
  ac:	0b 3b       	cpi	r16, 0xBB	; 187
  ae:	0b 49       	sbci	r16, 0x9B	; 155
  b0:	13 3f       	cpi	r17, 0xF3	; 243
  b2:	0c 02       	muls	r16, r28
  b4:	0a 00       	.word	0x000a	; ????
  b6:	00 0e       	add	r0, r16
  b8:	34 00       	.word	0x0034	; ????
  ba:	03 0e       	add	r0, r19
  bc:	3a 0b       	sbc	r19, r26
  be:	3b 0b       	sbc	r19, r27
  c0:	49 13       	cpse	r20, r25
  c2:	3f 0c       	add	r3, r15
  c4:	02 0a       	sbc	r0, r18
  c6:	00 00       	nop
  c8:	0f 34       	cpi	r16, 0x4F	; 79
  ca:	00 03       	mulsu	r16, r16
  cc:	0e 3a       	cpi	r16, 0xAE	; 174
  ce:	0b 3b       	cpi	r16, 0xBB	; 187
  d0:	0b 49       	sbci	r16, 0x9B	; 155
  d2:	13 3f       	cpi	r17, 0xF3	; 243
  d4:	0c 02       	muls	r16, r28
  d6:	0a 00       	.word	0x000a	; ????
  d8:	00 10       	cpse	r0, r0
  da:	34 00       	.word	0x0034	; ????
  dc:	03 0e       	add	r0, r19
  de:	3a 0b       	sbc	r19, r26
  e0:	3b 0b       	sbc	r19, r27
  e2:	49 13       	cpse	r20, r25
  e4:	3f 0c       	add	r3, r15
  e6:	02 0a       	sbc	r0, r18
  e8:	00 00       	nop
  ea:	11 34       	cpi	r17, 0x41	; 65
  ec:	00 03       	mulsu	r16, r16
  ee:	0e 3a       	cpi	r16, 0xAE	; 174
  f0:	0b 3b       	cpi	r16, 0xBB	; 187
  f2:	0b 49       	sbci	r16, 0x9B	; 155
  f4:	13 3f       	cpi	r17, 0xF3	; 243
  f6:	0c 02       	muls	r16, r28
  f8:	0a 00       	.word	0x000a	; ????
  fa:	00 12       	cpse	r0, r16
  fc:	34 00       	.word	0x0034	; ????
  fe:	03 0e       	add	r0, r19
 100:	3a 0b       	sbc	r19, r26
 102:	3b 0b       	sbc	r19, r27
 104:	49 13       	cpse	r20, r25
 106:	3f 0c       	add	r3, r15
 108:	02 0a       	sbc	r0, r18
 10a:	00 00       	nop
 10c:	13 34       	cpi	r17, 0x43	; 67
 10e:	00 03       	mulsu	r16, r16
 110:	0e 3a       	cpi	r16, 0xAE	; 174
 112:	0b 3b       	cpi	r16, 0xBB	; 187
 114:	0b 49       	sbci	r16, 0x9B	; 155
 116:	13 3f       	cpi	r17, 0xF3	; 243
 118:	0c 02       	muls	r16, r28
 11a:	0a 00       	.word	0x000a	; ????
 11c:	00 14       	cp	r0, r0
 11e:	34 00       	.word	0x0034	; ????
 120:	03 0e       	add	r0, r19
 122:	3a 0b       	sbc	r19, r26
 124:	3b 0b       	sbc	r19, r27
 126:	49 13       	cpse	r20, r25
 128:	3f 0c       	add	r3, r15
 12a:	02 0a       	sbc	r0, r18
 12c:	00 00       	nop
 12e:	15 34       	cpi	r17, 0x45	; 69
 130:	00 03       	mulsu	r16, r16
 132:	0e 3a       	cpi	r16, 0xAE	; 174
 134:	0b 3b       	cpi	r16, 0xBB	; 187
 136:	0b 49       	sbci	r16, 0x9B	; 155
 138:	13 3f       	cpi	r17, 0xF3	; 243
 13a:	0c 02       	muls	r16, r28
 13c:	0a 00       	.word	0x000a	; ????
 13e:	00 16       	cp	r0, r16
 140:	34 00       	.word	0x0034	; ????
 142:	03 0e       	add	r0, r19
 144:	3a 0b       	sbc	r19, r26
 146:	3b 0b       	sbc	r19, r27
 148:	49 13       	cpse	r20, r25
 14a:	3f 0c       	add	r3, r15
 14c:	02 0a       	sbc	r0, r18
 14e:	00 00       	nop
 150:	17 34       	cpi	r17, 0x47	; 71
 152:	00 03       	mulsu	r16, r16
 154:	0e 3a       	cpi	r16, 0xAE	; 174
 156:	0b 3b       	cpi	r16, 0xBB	; 187
 158:	0b 49       	sbci	r16, 0x9B	; 155
 15a:	13 3f       	cpi	r17, 0xF3	; 243
 15c:	0c 02       	muls	r16, r28
 15e:	0a 00       	.word	0x000a	; ????
 160:	00 18       	sub	r0, r0
 162:	34 00       	.word	0x0034	; ????
 164:	03 0e       	add	r0, r19
 166:	3a 0b       	sbc	r19, r26
 168:	3b 0b       	sbc	r19, r27
 16a:	49 13       	cpse	r20, r25
 16c:	3f 0c       	add	r3, r15
 16e:	02 0a       	sbc	r0, r18
 170:	00 00       	nop
 172:	19 34       	cpi	r17, 0x49	; 73
 174:	00 03       	mulsu	r16, r16
 176:	0e 3a       	cpi	r16, 0xAE	; 174
 178:	0b 3b       	cpi	r16, 0xBB	; 187
 17a:	0b 49       	sbci	r16, 0x9B	; 155
 17c:	13 3f       	cpi	r17, 0xF3	; 243
 17e:	0c 02       	muls	r16, r28
 180:	0a 00       	.word	0x000a	; ????
 182:	00 1a       	sub	r0, r16
 184:	34 00       	.word	0x0034	; ????
 186:	03 0e       	add	r0, r19
 188:	3a 0b       	sbc	r19, r26
 18a:	3b 0b       	sbc	r19, r27
 18c:	49 13       	cpse	r20, r25
 18e:	3f 0c       	add	r3, r15
 190:	02 0a       	sbc	r0, r18
 192:	00 00       	nop
 194:	1b 34       	cpi	r17, 0x4B	; 75
 196:	00 03       	mulsu	r16, r16
 198:	0e 3a       	cpi	r16, 0xAE	; 174
 19a:	0b 3b       	cpi	r16, 0xBB	; 187
 19c:	0b 49       	sbci	r16, 0x9B	; 155
 19e:	13 3f       	cpi	r17, 0xF3	; 243
 1a0:	0c 02       	muls	r16, r28
 1a2:	0a 00       	.word	0x000a	; ????
 1a4:	00 1c       	adc	r0, r0
 1a6:	34 00       	.word	0x0034	; ????
 1a8:	03 0e       	add	r0, r19
 1aa:	3a 0b       	sbc	r19, r26
 1ac:	3b 0b       	sbc	r19, r27
 1ae:	49 13       	cpse	r20, r25
 1b0:	3f 0c       	add	r3, r15
 1b2:	02 0a       	sbc	r0, r18
 1b4:	00 00       	nop
 1b6:	1d 34       	cpi	r17, 0x4D	; 77
 1b8:	00 03       	mulsu	r16, r16
 1ba:	0e 3a       	cpi	r16, 0xAE	; 174
 1bc:	0b 3b       	cpi	r16, 0xBB	; 187
 1be:	0b 49       	sbci	r16, 0x9B	; 155
 1c0:	13 3f       	cpi	r17, 0xF3	; 243
 1c2:	0c 02       	muls	r16, r28
 1c4:	0a 00       	.word	0x000a	; ????
 1c6:	00 1e       	adc	r0, r16
 1c8:	34 00       	.word	0x0034	; ????
 1ca:	03 0e       	add	r0, r19
 1cc:	3a 0b       	sbc	r19, r26
 1ce:	3b 0b       	sbc	r19, r27
 1d0:	49 13       	cpse	r20, r25
 1d2:	3f 0c       	add	r3, r15
 1d4:	02 0a       	sbc	r0, r18
 1d6:	00 00       	nop
 1d8:	1f 34       	cpi	r17, 0x4F	; 79
 1da:	00 03       	mulsu	r16, r16
 1dc:	0e 3a       	cpi	r16, 0xAE	; 174
 1de:	0b 3b       	cpi	r16, 0xBB	; 187
 1e0:	0b 49       	sbci	r16, 0x9B	; 155
 1e2:	13 3f       	cpi	r17, 0xF3	; 243
 1e4:	0c 02       	muls	r16, r28
 1e6:	0a 00       	.word	0x000a	; ????
 1e8:	00 20       	and	r0, r0
 1ea:	34 00       	.word	0x0034	; ????
 1ec:	03 0e       	add	r0, r19
 1ee:	3a 0b       	sbc	r19, r26
 1f0:	3b 0b       	sbc	r19, r27
 1f2:	49 13       	cpse	r20, r25
 1f4:	3f 0c       	add	r3, r15
 1f6:	02 0a       	sbc	r0, r18
 1f8:	00 00       	nop
 1fa:	21 34       	cpi	r18, 0x41	; 65
 1fc:	00 03       	mulsu	r16, r16
 1fe:	0e 3a       	cpi	r16, 0xAE	; 174
 200:	0b 3b       	cpi	r16, 0xBB	; 187
 202:	0b 49       	sbci	r16, 0x9B	; 155
 204:	13 3f       	cpi	r17, 0xF3	; 243
 206:	0c 02       	muls	r16, r28
 208:	0a 00       	.word	0x000a	; ????
 20a:	00 22       	and	r0, r16
 20c:	34 00       	.word	0x0034	; ????
 20e:	03 0e       	add	r0, r19
 210:	3a 0b       	sbc	r19, r26
 212:	3b 0b       	sbc	r19, r27
 214:	49 13       	cpse	r20, r25
 216:	3f 0c       	add	r3, r15
 218:	02 0a       	sbc	r0, r18
 21a:	00 00       	nop
 21c:	23 34       	cpi	r18, 0x43	; 67
 21e:	00 03       	mulsu	r16, r16
 220:	0e 3a       	cpi	r16, 0xAE	; 174
 222:	0b 3b       	cpi	r16, 0xBB	; 187
 224:	0b 49       	sbci	r16, 0x9B	; 155
 226:	13 3f       	cpi	r17, 0xF3	; 243
 228:	0c 02       	muls	r16, r28
 22a:	0a 00       	.word	0x000a	; ????
 22c:	00 24       	eor	r0, r0
 22e:	34 00       	.word	0x0034	; ????
 230:	03 0e       	add	r0, r19
 232:	3a 0b       	sbc	r19, r26
 234:	3b 0b       	sbc	r19, r27
 236:	49 13       	cpse	r20, r25
 238:	3f 0c       	add	r3, r15
 23a:	02 0a       	sbc	r0, r18
 23c:	00 00       	nop
 23e:	25 34       	cpi	r18, 0x45	; 69
 240:	00 03       	mulsu	r16, r16
 242:	0e 3a       	cpi	r16, 0xAE	; 174
 244:	0b 3b       	cpi	r16, 0xBB	; 187
 246:	0b 49       	sbci	r16, 0x9B	; 155
 248:	13 3f       	cpi	r17, 0xF3	; 243
 24a:	0c 02       	muls	r16, r28
 24c:	0a 00       	.word	0x000a	; ????
 24e:	00 26       	eor	r0, r16
 250:	34 00       	.word	0x0034	; ????
 252:	03 0e       	add	r0, r19
 254:	3a 0b       	sbc	r19, r26
 256:	3b 0b       	sbc	r19, r27
 258:	49 13       	cpse	r20, r25
 25a:	3f 0c       	add	r3, r15
 25c:	02 0a       	sbc	r0, r18
 25e:	00 00       	nop
 260:	27 34       	cpi	r18, 0x47	; 71
 262:	00 03       	mulsu	r16, r16
 264:	0e 3a       	cpi	r16, 0xAE	; 174
 266:	0b 3b       	cpi	r16, 0xBB	; 187
 268:	0b 49       	sbci	r16, 0x9B	; 155
 26a:	13 3f       	cpi	r17, 0xF3	; 243
 26c:	0c 02       	muls	r16, r28
 26e:	0a 00       	.word	0x000a	; ????
 270:	00 28       	or	r0, r0
 272:	34 00       	.word	0x0034	; ????
 274:	03 0e       	add	r0, r19
 276:	3a 0b       	sbc	r19, r26
 278:	3b 0b       	sbc	r19, r27
 27a:	49 13       	cpse	r20, r25
 27c:	3f 0c       	add	r3, r15
 27e:	02 0a       	sbc	r0, r18
 280:	00 00       	nop
 282:	29 34       	cpi	r18, 0x49	; 73
 284:	00 03       	mulsu	r16, r16
 286:	0e 3a       	cpi	r16, 0xAE	; 174
 288:	0b 3b       	cpi	r16, 0xBB	; 187
 28a:	0b 49       	sbci	r16, 0x9B	; 155
 28c:	13 3f       	cpi	r17, 0xF3	; 243
 28e:	0c 02       	muls	r16, r28
 290:	0a 00       	.word	0x000a	; ????
 292:	00 2a       	or	r0, r16
 294:	34 00       	.word	0x0034	; ????
 296:	03 0e       	add	r0, r19
 298:	3a 0b       	sbc	r19, r26
 29a:	3b 0b       	sbc	r19, r27
 29c:	49 13       	cpse	r20, r25
 29e:	3f 0c       	add	r3, r15
 2a0:	02 0a       	sbc	r0, r18
 2a2:	00 00       	nop
 2a4:	2b 34       	cpi	r18, 0x4B	; 75
 2a6:	00 03       	mulsu	r16, r16
 2a8:	0e 3a       	cpi	r16, 0xAE	; 174
 2aa:	0b 3b       	cpi	r16, 0xBB	; 187
 2ac:	0b 49       	sbci	r16, 0x9B	; 155
 2ae:	13 3f       	cpi	r17, 0xF3	; 243
 2b0:	0c 02       	muls	r16, r28
 2b2:	0a 00       	.word	0x000a	; ????
 2b4:	00 2c       	mov	r0, r0
 2b6:	34 00       	.word	0x0034	; ????
 2b8:	03 0e       	add	r0, r19
 2ba:	3a 0b       	sbc	r19, r26
 2bc:	3b 0b       	sbc	r19, r27
 2be:	49 13       	cpse	r20, r25
 2c0:	3f 0c       	add	r3, r15
 2c2:	02 0a       	sbc	r0, r18
 2c4:	00 00       	nop
 2c6:	2d 34       	cpi	r18, 0x4D	; 77
 2c8:	00 03       	mulsu	r16, r16
 2ca:	0e 3a       	cpi	r16, 0xAE	; 174
 2cc:	0b 3b       	cpi	r16, 0xBB	; 187
 2ce:	0b 49       	sbci	r16, 0x9B	; 155
 2d0:	13 3f       	cpi	r17, 0xF3	; 243
 2d2:	0c 02       	muls	r16, r28
 2d4:	0a 00       	.word	0x000a	; ????
 2d6:	00 2e       	mov	r0, r16
 2d8:	34 00       	.word	0x0034	; ????
 2da:	03 0e       	add	r0, r19
 2dc:	3a 0b       	sbc	r19, r26
 2de:	3b 0b       	sbc	r19, r27
 2e0:	49 13       	cpse	r20, r25
 2e2:	3f 0c       	add	r3, r15
 2e4:	02 0a       	sbc	r0, r18
 2e6:	00 00       	nop
 2e8:	2f 34       	cpi	r18, 0x4F	; 79
 2ea:	00 03       	mulsu	r16, r16
 2ec:	0e 3a       	cpi	r16, 0xAE	; 174
 2ee:	0b 3b       	cpi	r16, 0xBB	; 187
 2f0:	0b 49       	sbci	r16, 0x9B	; 155
 2f2:	13 3f       	cpi	r17, 0xF3	; 243
 2f4:	0c 02       	muls	r16, r28
 2f6:	0a 00       	.word	0x000a	; ????
 2f8:	00 30       	cpi	r16, 0x00	; 0
 2fa:	34 00       	.word	0x0034	; ????
 2fc:	03 0e       	add	r0, r19
 2fe:	3a 0b       	sbc	r19, r26
 300:	3b 0b       	sbc	r19, r27
 302:	49 13       	cpse	r20, r25
 304:	3f 0c       	add	r3, r15
 306:	02 0a       	sbc	r0, r18
 308:	00 00       	nop
 30a:	31 34       	cpi	r19, 0x41	; 65
 30c:	00 03       	mulsu	r16, r16
 30e:	0e 3a       	cpi	r16, 0xAE	; 174
 310:	0b 3b       	cpi	r16, 0xBB	; 187
 312:	0b 49       	sbci	r16, 0x9B	; 155
 314:	13 3f       	cpi	r17, 0xF3	; 243
 316:	0c 02       	muls	r16, r28
 318:	0a 00       	.word	0x000a	; ????
 31a:	00 32       	cpi	r16, 0x20	; 32
 31c:	34 00       	.word	0x0034	; ????
 31e:	03 0e       	add	r0, r19
 320:	3a 0b       	sbc	r19, r26
 322:	3b 0b       	sbc	r19, r27
 324:	49 13       	cpse	r20, r25
 326:	3f 0c       	add	r3, r15
 328:	02 0a       	sbc	r0, r18
 32a:	00 00       	nop
 32c:	33 34       	cpi	r19, 0x43	; 67
 32e:	00 03       	mulsu	r16, r16
 330:	0e 3a       	cpi	r16, 0xAE	; 174
 332:	0b 3b       	cpi	r16, 0xBB	; 187
 334:	0b 49       	sbci	r16, 0x9B	; 155
 336:	13 3f       	cpi	r17, 0xF3	; 243
 338:	0c 02       	muls	r16, r28
 33a:	0a 00       	.word	0x000a	; ????
 33c:	00 34       	cpi	r16, 0x40	; 64
 33e:	34 00       	.word	0x0034	; ????
 340:	03 0e       	add	r0, r19
 342:	3a 0b       	sbc	r19, r26
 344:	3b 0b       	sbc	r19, r27
 346:	49 13       	cpse	r20, r25
 348:	3f 0c       	add	r3, r15
 34a:	02 0a       	sbc	r0, r18
 34c:	00 00       	nop
 34e:	35 34       	cpi	r19, 0x45	; 69
 350:	00 03       	mulsu	r16, r16
 352:	0e 3a       	cpi	r16, 0xAE	; 174
 354:	0b 3b       	cpi	r16, 0xBB	; 187
 356:	0b 49       	sbci	r16, 0x9B	; 155
 358:	13 3f       	cpi	r17, 0xF3	; 243
 35a:	0c 02       	muls	r16, r28
 35c:	0a 00       	.word	0x000a	; ????
 35e:	00 36       	cpi	r16, 0x60	; 96
 360:	34 00       	.word	0x0034	; ????
 362:	03 0e       	add	r0, r19
 364:	3a 0b       	sbc	r19, r26
 366:	3b 0b       	sbc	r19, r27
 368:	49 13       	cpse	r20, r25
 36a:	3f 0c       	add	r3, r15
 36c:	02 0a       	sbc	r0, r18
 36e:	00 00       	nop
 370:	37 34       	cpi	r19, 0x47	; 71
 372:	00 03       	mulsu	r16, r16
 374:	0e 3a       	cpi	r16, 0xAE	; 174
 376:	0b 3b       	cpi	r16, 0xBB	; 187
 378:	0b 49       	sbci	r16, 0x9B	; 155
 37a:	13 3f       	cpi	r17, 0xF3	; 243
 37c:	0c 02       	muls	r16, r28
 37e:	0a 00       	.word	0x000a	; ????
 380:	00 38       	cpi	r16, 0x80	; 128
 382:	34 00       	.word	0x0034	; ????
 384:	03 0e       	add	r0, r19
 386:	3a 0b       	sbc	r19, r26
 388:	3b 0b       	sbc	r19, r27
 38a:	49 13       	cpse	r20, r25
 38c:	3f 0c       	add	r3, r15
 38e:	02 0a       	sbc	r0, r18
 390:	00 00       	nop
 392:	39 34       	cpi	r19, 0x49	; 73
 394:	00 03       	mulsu	r16, r16
 396:	0e 3a       	cpi	r16, 0xAE	; 174
 398:	0b 3b       	cpi	r16, 0xBB	; 187
 39a:	0b 49       	sbci	r16, 0x9B	; 155
 39c:	13 3f       	cpi	r17, 0xF3	; 243
 39e:	0c 02       	muls	r16, r28
 3a0:	0a 00       	.word	0x000a	; ????
 3a2:	00 3a       	cpi	r16, 0xA0	; 160
 3a4:	34 00       	.word	0x0034	; ????
 3a6:	03 0e       	add	r0, r19
 3a8:	3a 0b       	sbc	r19, r26
 3aa:	3b 0b       	sbc	r19, r27
 3ac:	49 13       	cpse	r20, r25
 3ae:	3f 0c       	add	r3, r15
 3b0:	02 0a       	sbc	r0, r18
 3b2:	00 00       	nop
 3b4:	3b 34       	cpi	r19, 0x4B	; 75
 3b6:	00 03       	mulsu	r16, r16
 3b8:	0e 3a       	cpi	r16, 0xAE	; 174
 3ba:	0b 3b       	cpi	r16, 0xBB	; 187
 3bc:	0b 49       	sbci	r16, 0x9B	; 155
 3be:	13 3f       	cpi	r17, 0xF3	; 243
 3c0:	0c 02       	muls	r16, r28
 3c2:	0a 00       	.word	0x000a	; ????
 3c4:	00 3c       	cpi	r16, 0xC0	; 192
 3c6:	34 00       	.word	0x0034	; ????
 3c8:	03 0e       	add	r0, r19
 3ca:	3a 0b       	sbc	r19, r26
 3cc:	3b 0b       	sbc	r19, r27
 3ce:	49 13       	cpse	r20, r25
 3d0:	3f 0c       	add	r3, r15
 3d2:	02 0a       	sbc	r0, r18
 3d4:	00 00       	nop
 3d6:	3d 34       	cpi	r19, 0x4D	; 77
 3d8:	00 03       	mulsu	r16, r16
 3da:	0e 3a       	cpi	r16, 0xAE	; 174
 3dc:	0b 3b       	cpi	r16, 0xBB	; 187
 3de:	0b 49       	sbci	r16, 0x9B	; 155
 3e0:	13 3f       	cpi	r17, 0xF3	; 243
 3e2:	0c 02       	muls	r16, r28
 3e4:	0a 00       	.word	0x000a	; ????
 3e6:	00 3e       	cpi	r16, 0xE0	; 224
 3e8:	34 00       	.word	0x0034	; ????
 3ea:	03 0e       	add	r0, r19
 3ec:	3a 0b       	sbc	r19, r26
 3ee:	3b 0b       	sbc	r19, r27
 3f0:	49 13       	cpse	r20, r25
 3f2:	3f 0c       	add	r3, r15
 3f4:	02 0a       	sbc	r0, r18
 3f6:	00 00       	nop
 3f8:	3f 34       	cpi	r19, 0x4F	; 79
 3fa:	00 03       	mulsu	r16, r16
 3fc:	0e 3a       	cpi	r16, 0xAE	; 174
 3fe:	0b 3b       	cpi	r16, 0xBB	; 187
 400:	0b 49       	sbci	r16, 0x9B	; 155
 402:	13 3f       	cpi	r17, 0xF3	; 243
 404:	0c 02       	muls	r16, r28
 406:	0a 00       	.word	0x000a	; ????
 408:	00 40       	sbci	r16, 0x00	; 0
 40a:	34 00       	.word	0x0034	; ????
 40c:	03 0e       	add	r0, r19
 40e:	3a 0b       	sbc	r19, r26
 410:	3b 0b       	sbc	r19, r27
 412:	49 13       	cpse	r20, r25
 414:	3f 0c       	add	r3, r15
 416:	02 0a       	sbc	r0, r18
 418:	00 00       	nop
 41a:	41 34       	cpi	r20, 0x41	; 65
 41c:	00 03       	mulsu	r16, r16
 41e:	0e 3a       	cpi	r16, 0xAE	; 174
 420:	0b 3b       	cpi	r16, 0xBB	; 187
 422:	0b 49       	sbci	r16, 0x9B	; 155
 424:	13 3f       	cpi	r17, 0xF3	; 243
 426:	0c 02       	muls	r16, r28
 428:	0a 00       	.word	0x000a	; ????
 42a:	00 42       	sbci	r16, 0x20	; 32
 42c:	34 00       	.word	0x0034	; ????
 42e:	03 0e       	add	r0, r19
 430:	3a 0b       	sbc	r19, r26
 432:	3b 0b       	sbc	r19, r27
 434:	49 13       	cpse	r20, r25
 436:	3f 0c       	add	r3, r15
 438:	02 0a       	sbc	r0, r18
 43a:	00 00       	nop
 43c:	43 34       	cpi	r20, 0x43	; 67
 43e:	00 03       	mulsu	r16, r16
 440:	0e 3a       	cpi	r16, 0xAE	; 174
 442:	0b 3b       	cpi	r16, 0xBB	; 187
 444:	0b 49       	sbci	r16, 0x9B	; 155
 446:	13 3f       	cpi	r17, 0xF3	; 243
 448:	0c 02       	muls	r16, r28
 44a:	0a 00       	.word	0x000a	; ????
 44c:	00 44       	sbci	r16, 0x40	; 64
 44e:	34 00       	.word	0x0034	; ????
 450:	03 0e       	add	r0, r19
 452:	3a 0b       	sbc	r19, r26
 454:	3b 0b       	sbc	r19, r27
 456:	49 13       	cpse	r20, r25
 458:	3f 0c       	add	r3, r15
 45a:	02 0a       	sbc	r0, r18
 45c:	00 00       	nop
 45e:	45 34       	cpi	r20, 0x45	; 69
 460:	00 03       	mulsu	r16, r16
 462:	0e 3a       	cpi	r16, 0xAE	; 174
 464:	0b 3b       	cpi	r16, 0xBB	; 187
 466:	0b 49       	sbci	r16, 0x9B	; 155
 468:	13 3f       	cpi	r17, 0xF3	; 243
 46a:	0c 02       	muls	r16, r28
 46c:	0a 00       	.word	0x000a	; ????
 46e:	00 46       	sbci	r16, 0x60	; 96
 470:	34 00       	.word	0x0034	; ????
 472:	03 0e       	add	r0, r19
 474:	3a 0b       	sbc	r19, r26
 476:	3b 0b       	sbc	r19, r27
 478:	49 13       	cpse	r20, r25
 47a:	3f 0c       	add	r3, r15
 47c:	02 0a       	sbc	r0, r18
 47e:	00 00       	nop
 480:	47 34       	cpi	r20, 0x47	; 71
 482:	00 03       	mulsu	r16, r16
 484:	0e 3a       	cpi	r16, 0xAE	; 174
 486:	0b 3b       	cpi	r16, 0xBB	; 187
 488:	0b 49       	sbci	r16, 0x9B	; 155
 48a:	13 3f       	cpi	r17, 0xF3	; 243
 48c:	0c 02       	muls	r16, r28
 48e:	0a 00       	.word	0x000a	; ????
 490:	00 48       	sbci	r16, 0x80	; 128
 492:	34 00       	.word	0x0034	; ????
 494:	03 0e       	add	r0, r19
 496:	3a 0b       	sbc	r19, r26
 498:	3b 0b       	sbc	r19, r27
 49a:	49 13       	cpse	r20, r25
 49c:	3f 0c       	add	r3, r15
 49e:	02 0a       	sbc	r0, r18
 4a0:	00 00       	nop
 4a2:	49 34       	cpi	r20, 0x49	; 73
 4a4:	00 03       	mulsu	r16, r16
 4a6:	0e 3a       	cpi	r16, 0xAE	; 174
 4a8:	0b 3b       	cpi	r16, 0xBB	; 187
 4aa:	0b 49       	sbci	r16, 0x9B	; 155
 4ac:	13 3f       	cpi	r17, 0xF3	; 243
 4ae:	0c 02       	muls	r16, r28
 4b0:	0a 00       	.word	0x000a	; ????
 4b2:	00 4a       	sbci	r16, 0xA0	; 160
 4b4:	34 00       	.word	0x0034	; ????
 4b6:	03 0e       	add	r0, r19
 4b8:	3a 0b       	sbc	r19, r26
 4ba:	3b 0b       	sbc	r19, r27
 4bc:	49 13       	cpse	r20, r25
 4be:	3f 0c       	add	r3, r15
 4c0:	02 0a       	sbc	r0, r18
 4c2:	00 00       	nop
 4c4:	4b 34       	cpi	r20, 0x4B	; 75
 4c6:	00 03       	mulsu	r16, r16
 4c8:	0e 3a       	cpi	r16, 0xAE	; 174
 4ca:	0b 3b       	cpi	r16, 0xBB	; 187
 4cc:	0b 49       	sbci	r16, 0x9B	; 155
 4ce:	13 3f       	cpi	r17, 0xF3	; 243
 4d0:	0c 02       	muls	r16, r28
 4d2:	0a 00       	.word	0x000a	; ????
 4d4:	00 4c       	sbci	r16, 0xC0	; 192
 4d6:	34 00       	.word	0x0034	; ????
 4d8:	03 0e       	add	r0, r19
 4da:	3a 0b       	sbc	r19, r26
 4dc:	3b 0b       	sbc	r19, r27
 4de:	49 13       	cpse	r20, r25
 4e0:	3f 0c       	add	r3, r15
 4e2:	02 0a       	sbc	r0, r18
 4e4:	00 00       	nop
 4e6:	4d 34       	cpi	r20, 0x4D	; 77
 4e8:	00 03       	mulsu	r16, r16
 4ea:	0e 3a       	cpi	r16, 0xAE	; 174
 4ec:	0b 3b       	cpi	r16, 0xBB	; 187
 4ee:	0b 49       	sbci	r16, 0x9B	; 155
 4f0:	13 3f       	cpi	r17, 0xF3	; 243
 4f2:	0c 02       	muls	r16, r28
 4f4:	0a 00       	.word	0x000a	; ????
 4f6:	00 4e       	sbci	r16, 0xE0	; 224
 4f8:	34 00       	.word	0x0034	; ????
 4fa:	03 0e       	add	r0, r19
 4fc:	3a 0b       	sbc	r19, r26
 4fe:	3b 0b       	sbc	r19, r27
 500:	49 13       	cpse	r20, r25
 502:	3f 0c       	add	r3, r15
 504:	02 0a       	sbc	r0, r18
 506:	00 00       	nop
 508:	4f 34       	cpi	r20, 0x4F	; 79
 50a:	00 03       	mulsu	r16, r16
 50c:	0e 3a       	cpi	r16, 0xAE	; 174
 50e:	0b 3b       	cpi	r16, 0xBB	; 187
 510:	0b 49       	sbci	r16, 0x9B	; 155
 512:	13 3f       	cpi	r17, 0xF3	; 243
 514:	0c 02       	muls	r16, r28
 516:	0a 00       	.word	0x000a	; ????
 518:	00 50       	subi	r16, 0x00	; 0
 51a:	34 00       	.word	0x0034	; ????
 51c:	03 0e       	add	r0, r19
 51e:	3a 0b       	sbc	r19, r26
 520:	3b 0b       	sbc	r19, r27
 522:	49 13       	cpse	r20, r25
 524:	3f 0c       	add	r3, r15
 526:	02 0a       	sbc	r0, r18
 528:	00 00       	nop
 52a:	51 34       	cpi	r21, 0x41	; 65
 52c:	00 03       	mulsu	r16, r16
 52e:	0e 3a       	cpi	r16, 0xAE	; 174
 530:	0b 3b       	cpi	r16, 0xBB	; 187
 532:	0b 49       	sbci	r16, 0x9B	; 155
 534:	13 3f       	cpi	r17, 0xF3	; 243
 536:	0c 02       	muls	r16, r28
 538:	0a 00       	.word	0x000a	; ????
 53a:	00 52       	subi	r16, 0x20	; 32
 53c:	34 00       	.word	0x0034	; ????
 53e:	03 0e       	add	r0, r19
 540:	3a 0b       	sbc	r19, r26
 542:	3b 0b       	sbc	r19, r27
 544:	49 13       	cpse	r20, r25
 546:	3f 0c       	add	r3, r15
 548:	02 0a       	sbc	r0, r18
 54a:	00 00       	nop
 54c:	53 34       	cpi	r21, 0x43	; 67
 54e:	00 03       	mulsu	r16, r16
 550:	0e 3a       	cpi	r16, 0xAE	; 174
 552:	0b 3b       	cpi	r16, 0xBB	; 187
 554:	0b 49       	sbci	r16, 0x9B	; 155
 556:	13 3f       	cpi	r17, 0xF3	; 243
 558:	0c 02       	muls	r16, r28
 55a:	0a 00       	.word	0x000a	; ????
 55c:	00 54       	subi	r16, 0x40	; 64
 55e:	34 00       	.word	0x0034	; ????
 560:	03 0e       	add	r0, r19
 562:	3a 0b       	sbc	r19, r26
 564:	3b 0b       	sbc	r19, r27
 566:	49 13       	cpse	r20, r25
 568:	3f 0c       	add	r3, r15
 56a:	02 0a       	sbc	r0, r18
 56c:	00 00       	nop
 56e:	55 34       	cpi	r21, 0x45	; 69
 570:	00 03       	mulsu	r16, r16
 572:	0e 3a       	cpi	r16, 0xAE	; 174
 574:	0b 3b       	cpi	r16, 0xBB	; 187
 576:	0b 49       	sbci	r16, 0x9B	; 155
 578:	13 3f       	cpi	r17, 0xF3	; 243
 57a:	0c 02       	muls	r16, r28
 57c:	0a 00       	.word	0x000a	; ????
 57e:	00 56       	subi	r16, 0x60	; 96
 580:	34 00       	.word	0x0034	; ????
 582:	03 0e       	add	r0, r19
 584:	3a 0b       	sbc	r19, r26
 586:	3b 0b       	sbc	r19, r27
 588:	49 13       	cpse	r20, r25
 58a:	3f 0c       	add	r3, r15
 58c:	02 0a       	sbc	r0, r18
 58e:	00 00       	nop
 590:	57 34       	cpi	r21, 0x47	; 71
 592:	00 03       	mulsu	r16, r16
 594:	0e 3a       	cpi	r16, 0xAE	; 174
 596:	0b 3b       	cpi	r16, 0xBB	; 187
 598:	0b 49       	sbci	r16, 0x9B	; 155
 59a:	13 3f       	cpi	r17, 0xF3	; 243
 59c:	0c 02       	muls	r16, r28
 59e:	0a 00       	.word	0x000a	; ????
 5a0:	00 58       	subi	r16, 0x80	; 128
 5a2:	34 00       	.word	0x0034	; ????
 5a4:	03 0e       	add	r0, r19
 5a6:	3a 0b       	sbc	r19, r26
 5a8:	3b 0b       	sbc	r19, r27
 5aa:	49 13       	cpse	r20, r25
 5ac:	3f 0c       	add	r3, r15
 5ae:	02 0a       	sbc	r0, r18
 5b0:	00 00       	nop
 5b2:	59 34       	cpi	r21, 0x49	; 73
 5b4:	00 03       	mulsu	r16, r16
 5b6:	0e 3a       	cpi	r16, 0xAE	; 174
 5b8:	0b 3b       	cpi	r16, 0xBB	; 187
 5ba:	0b 49       	sbci	r16, 0x9B	; 155
 5bc:	13 3f       	cpi	r17, 0xF3	; 243
 5be:	0c 02       	muls	r16, r28
 5c0:	0a 00       	.word	0x000a	; ????
 5c2:	00 5a       	subi	r16, 0xA0	; 160
 5c4:	34 00       	.word	0x0034	; ????
 5c6:	03 0e       	add	r0, r19
 5c8:	3a 0b       	sbc	r19, r26
 5ca:	3b 0b       	sbc	r19, r27
 5cc:	49 13       	cpse	r20, r25
 5ce:	3f 0c       	add	r3, r15
 5d0:	02 0a       	sbc	r0, r18
 5d2:	00 00       	nop
 5d4:	5b 34       	cpi	r21, 0x4B	; 75
 5d6:	00 03       	mulsu	r16, r16
 5d8:	0e 3a       	cpi	r16, 0xAE	; 174
 5da:	0b 3b       	cpi	r16, 0xBB	; 187
 5dc:	0b 49       	sbci	r16, 0x9B	; 155
 5de:	13 3f       	cpi	r17, 0xF3	; 243
 5e0:	0c 02       	muls	r16, r28
 5e2:	0a 00       	.word	0x000a	; ????
 5e4:	00 5c       	subi	r16, 0xC0	; 192
 5e6:	34 00       	.word	0x0034	; ????
 5e8:	03 0e       	add	r0, r19
 5ea:	3a 0b       	sbc	r19, r26
 5ec:	3b 0b       	sbc	r19, r27
 5ee:	49 13       	cpse	r20, r25
 5f0:	3f 0c       	add	r3, r15
 5f2:	02 0a       	sbc	r0, r18
 5f4:	00 00       	nop
 5f6:	5d 34       	cpi	r21, 0x4D	; 77
 5f8:	00 03       	mulsu	r16, r16
 5fa:	0e 3a       	cpi	r16, 0xAE	; 174
 5fc:	0b 3b       	cpi	r16, 0xBB	; 187
 5fe:	0b 49       	sbci	r16, 0x9B	; 155
 600:	13 3f       	cpi	r17, 0xF3	; 243
 602:	0c 02       	muls	r16, r28
 604:	0a 00       	.word	0x000a	; ????
 606:	00 5e       	subi	r16, 0xE0	; 224
 608:	34 00       	.word	0x0034	; ????
 60a:	03 0e       	add	r0, r19
 60c:	3a 0b       	sbc	r19, r26
 60e:	3b 0b       	sbc	r19, r27
 610:	49 13       	cpse	r20, r25
 612:	3f 0c       	add	r3, r15
 614:	02 0a       	sbc	r0, r18
 616:	00 00       	nop
 618:	5f 34       	cpi	r21, 0x4F	; 79
 61a:	00 03       	mulsu	r16, r16
 61c:	0e 3a       	cpi	r16, 0xAE	; 174
 61e:	0b 3b       	cpi	r16, 0xBB	; 187
 620:	0b 49       	sbci	r16, 0x9B	; 155
 622:	13 3f       	cpi	r17, 0xF3	; 243
 624:	0c 02       	muls	r16, r28
 626:	0a 00       	.word	0x000a	; ????
 628:	00 00       	nop
 62a:	01 11       	cpse	r16, r1
 62c:	01 25       	eor	r16, r1
 62e:	0e 13       	cpse	r16, r30
 630:	0b 03       	fmul	r16, r19
 632:	0e 55       	subi	r16, 0x5E	; 94
 634:	06 11       	cpse	r16, r6
 636:	01 52       	subi	r16, 0x21	; 33
 638:	01 10       	cpse	r0, r1
 63a:	06 00       	.word	0x0006	; ????
 63c:	00 02       	muls	r16, r16
 63e:	24 00       	.word	0x0024	; ????
 640:	0b 0b       	sbc	r16, r27
 642:	3e 0b       	sbc	r19, r30
 644:	03 0e       	add	r0, r19
 646:	00 00       	nop
 648:	03 24       	eor	r0, r3
 64a:	00 0b       	sbc	r16, r16
 64c:	0b 3e       	cpi	r16, 0xEB	; 235
 64e:	0b 03       	fmul	r16, r19
 650:	08 00       	.word	0x0008	; ????
 652:	00 04       	cpc	r0, r0
 654:	16 00       	.word	0x0016	; ????
 656:	03 0e       	add	r0, r19
 658:	3a 0b       	sbc	r19, r26
 65a:	3b 0b       	sbc	r19, r27
 65c:	49 13       	cpse	r20, r25
 65e:	00 00       	nop
 660:	05 04       	cpc	r0, r5
 662:	01 03       	mulsu	r16, r17
 664:	0e 0b       	sbc	r16, r30
 666:	0b 49       	sbci	r16, 0x9B	; 155
 668:	13 3a       	cpi	r17, 0xA3	; 163
 66a:	0b 3b       	cpi	r16, 0xBB	; 187
 66c:	0b 01       	movw	r0, r22
 66e:	13 00       	.word	0x0013	; ????
 670:	00 06       	cpc	r0, r16
 672:	28 00       	.word	0x0028	; ????
 674:	03 0e       	add	r0, r19
 676:	1c 0b       	sbc	r17, r28
 678:	00 00       	nop
 67a:	07 2e       	mov	r0, r23
 67c:	00 03       	mulsu	r16, r16
 67e:	0e 3a       	cpi	r16, 0xAE	; 174
 680:	0b 3b       	cpi	r16, 0xBB	; 187
 682:	0b 27       	eor	r16, r27
 684:	0c 20       	and	r0, r12
 686:	0b 00       	.word	0x000b	; ????
 688:	00 08       	sbc	r0, r0
 68a:	2e 01       	movw	r4, r28
 68c:	03 0e       	add	r0, r19
 68e:	3a 0b       	sbc	r19, r26
 690:	3b 0b       	sbc	r19, r27
 692:	27 0c       	add	r2, r7
 694:	11 01       	movw	r2, r2
 696:	12 01       	movw	r2, r4
 698:	40 06       	cpc	r4, r16
 69a:	96 42       	sbci	r25, 0x26	; 38
 69c:	0c 01       	movw	r0, r24
 69e:	13 00       	.word	0x0013	; ????
 6a0:	00 09       	sbc	r16, r0
 6a2:	1d 01       	movw	r2, r26
 6a4:	31 13       	cpse	r19, r17
 6a6:	11 01       	movw	r2, r2
 6a8:	12 01       	movw	r2, r4
 6aa:	58 0b       	sbc	r21, r24
 6ac:	59 0b       	sbc	r21, r25
 6ae:	00 00       	nop
 6b0:	0a 1d       	adc	r16, r10
 6b2:	00 31       	cpi	r16, 0x10	; 16
 6b4:	13 11       	cpse	r17, r3
 6b6:	01 12       	cpse	r0, r17
 6b8:	01 58       	subi	r16, 0x81	; 129
 6ba:	0b 59       	subi	r16, 0x9B	; 155
 6bc:	0b 00       	.word	0x000b	; ????
 6be:	00 0b       	sbc	r16, r16
 6c0:	2e 00       	.word	0x002e	; ????
 6c2:	3f 0c       	add	r3, r15
 6c4:	03 0e       	add	r0, r19
 6c6:	3a 0b       	sbc	r19, r26
 6c8:	3b 0b       	sbc	r19, r27
 6ca:	27 0c       	add	r2, r7
 6cc:	49 13       	cpse	r20, r25
 6ce:	11 01       	movw	r2, r2
 6d0:	12 01       	movw	r2, r4
 6d2:	40 06       	cpc	r4, r16
 6d4:	97 42       	sbci	r25, 0x27	; 39
 6d6:	0c 00       	.word	0x000c	; ????
 6d8:	00 0c       	add	r0, r0
 6da:	2e 00       	.word	0x002e	; ????
 6dc:	3f 0c       	add	r3, r15
 6de:	03 0e       	add	r0, r19
 6e0:	3a 0b       	sbc	r19, r26
 6e2:	3b 0b       	sbc	r19, r27
 6e4:	27 0c       	add	r2, r7
 6e6:	11 01       	movw	r2, r2
 6e8:	12 01       	movw	r2, r4
 6ea:	40 06       	cpc	r4, r16
 6ec:	97 42       	sbci	r25, 0x27	; 39
 6ee:	0c 00       	.word	0x000c	; ????
 6f0:	00 0d       	add	r16, r0
 6f2:	2e 01       	movw	r4, r28
 6f4:	3f 0c       	add	r3, r15
 6f6:	03 0e       	add	r0, r19
 6f8:	3a 0b       	sbc	r19, r26
 6fa:	3b 0b       	sbc	r19, r27
 6fc:	27 0c       	add	r2, r7
 6fe:	49 13       	cpse	r20, r25
 700:	11 01       	movw	r2, r2
 702:	12 01       	movw	r2, r4
 704:	40 06       	cpc	r4, r16
 706:	96 42       	sbci	r25, 0x26	; 38
 708:	0c 01       	movw	r0, r24
 70a:	13 00       	.word	0x0013	; ????
 70c:	00 0e       	add	r0, r16
 70e:	34 00       	.word	0x0034	; ????
 710:	03 0e       	add	r0, r19
 712:	3a 0b       	sbc	r19, r26
 714:	3b 0b       	sbc	r19, r27
 716:	49 13       	cpse	r20, r25
 718:	02 0a       	sbc	r0, r18
 71a:	00 00       	nop
 71c:	0f 01       	movw	r0, r30
 71e:	01 49       	sbci	r16, 0x91	; 145
 720:	13 01       	movw	r2, r6
 722:	13 00       	.word	0x0013	; ????
 724:	00 10       	cpse	r0, r0
 726:	21 00       	.word	0x0021	; ????
 728:	49 13       	cpse	r20, r25
 72a:	2f 0b       	sbc	r18, r31
 72c:	00 00       	nop
 72e:	11 34       	cpi	r17, 0x41	; 65
 730:	00 03       	mulsu	r16, r16
 732:	0e 3a       	cpi	r16, 0xAE	; 174
 734:	0b 3b       	cpi	r16, 0xBB	; 187
 736:	0b 49       	sbci	r16, 0x9B	; 155
 738:	13 3f       	cpi	r17, 0xF3	; 243
 73a:	0c 02       	muls	r16, r28
 73c:	0a 00       	.word	0x000a	; ????
 73e:	00 12       	cpse	r0, r16
 740:	35 00       	.word	0x0035	; ????
 742:	49 13       	cpse	r20, r25
 744:	00 00       	nop
 746:	00 01       	movw	r0, r0
 748:	11 01       	movw	r2, r2
 74a:	25 0e       	add	r2, r21
 74c:	13 0b       	sbc	r17, r19
 74e:	03 0e       	add	r0, r19
 750:	55 06       	cpc	r5, r21
 752:	11 01       	movw	r2, r2
 754:	52 01       	movw	r10, r4
 756:	10 06       	cpc	r1, r16
 758:	00 00       	nop
 75a:	02 24       	eor	r0, r2
 75c:	00 0b       	sbc	r16, r16
 75e:	0b 3e       	cpi	r16, 0xEB	; 235
 760:	0b 03       	fmul	r16, r19
 762:	0e 00       	.word	0x000e	; ????
 764:	00 03       	mulsu	r16, r16
 766:	24 00       	.word	0x0024	; ????
 768:	0b 0b       	sbc	r16, r27
 76a:	3e 0b       	sbc	r19, r30
 76c:	03 08       	sbc	r0, r3
 76e:	00 00       	nop
 770:	04 16       	cp	r0, r20
 772:	00 03       	mulsu	r16, r16
 774:	0e 3a       	cpi	r16, 0xAE	; 174
 776:	0b 3b       	cpi	r16, 0xBB	; 187
 778:	0b 49       	sbci	r16, 0x9B	; 155
 77a:	13 00       	.word	0x0013	; ????
 77c:	00 05       	cpc	r16, r0
 77e:	2e 00       	.word	0x002e	; ????
 780:	03 0e       	add	r0, r19
 782:	3a 0b       	sbc	r19, r26
 784:	3b 0b       	sbc	r19, r27
 786:	27 0c       	add	r2, r7
 788:	20 0b       	sbc	r18, r16
 78a:	00 00       	nop
 78c:	06 2e       	mov	r0, r22
 78e:	01 03       	mulsu	r16, r17
 790:	0e 3a       	cpi	r16, 0xAE	; 174
 792:	0b 3b       	cpi	r16, 0xBB	; 187
 794:	0b 27       	eor	r16, r27
 796:	0c 11       	cpse	r16, r12
 798:	01 12       	cpse	r0, r17
 79a:	01 40       	sbci	r16, 0x01	; 1
 79c:	06 96       	adiw	r24, 0x06	; 6
 79e:	42 0c       	add	r4, r2
 7a0:	01 13       	cpse	r16, r17
 7a2:	00 00       	nop
 7a4:	07 1d       	adc	r16, r7
 7a6:	01 31       	cpi	r16, 0x11	; 17
 7a8:	13 11       	cpse	r17, r3
 7aa:	01 12       	cpse	r0, r17
 7ac:	01 58       	subi	r16, 0x81	; 129
 7ae:	0b 59       	subi	r16, 0x9B	; 155
 7b0:	0b 00       	.word	0x000b	; ????
 7b2:	00 08       	sbc	r0, r0
 7b4:	1d 00       	.word	0x001d	; ????
 7b6:	31 13       	cpse	r19, r17
 7b8:	11 01       	movw	r2, r2
 7ba:	12 01       	movw	r2, r4
 7bc:	58 0b       	sbc	r21, r24
 7be:	59 0b       	sbc	r21, r25
 7c0:	00 00       	nop
 7c2:	09 2e       	mov	r0, r25
 7c4:	01 3f       	cpi	r16, 0xF1	; 241
 7c6:	0c 03       	fmul	r16, r20
 7c8:	0e 3a       	cpi	r16, 0xAE	; 174
 7ca:	0b 3b       	cpi	r16, 0xBB	; 187
 7cc:	0b 27       	eor	r16, r27
 7ce:	0c 49       	sbci	r16, 0x9C	; 156
 7d0:	13 11       	cpse	r17, r3
 7d2:	01 12       	cpse	r0, r17
 7d4:	01 40       	sbci	r16, 0x01	; 1
 7d6:	06 97       	sbiw	r24, 0x06	; 6
 7d8:	42 0c       	add	r4, r2
 7da:	01 13       	cpse	r16, r17
 7dc:	00 00       	nop
 7de:	0a 05       	cpc	r16, r10
 7e0:	00 03       	mulsu	r16, r16
 7e2:	08 3a       	cpi	r16, 0xA8	; 168
 7e4:	0b 3b       	cpi	r16, 0xBB	; 187
 7e6:	0b 49       	sbci	r16, 0x9B	; 155
 7e8:	13 02       	muls	r17, r19
 7ea:	0a 00       	.word	0x000a	; ????
 7ec:	00 0b       	sbc	r16, r16
 7ee:	05 00       	.word	0x0005	; ????
 7f0:	03 0e       	add	r0, r19
 7f2:	3a 0b       	sbc	r19, r26
 7f4:	3b 0b       	sbc	r19, r27
 7f6:	49 13       	cpse	r20, r25
 7f8:	02 0a       	sbc	r0, r18
 7fa:	00 00       	nop
 7fc:	0c 34       	cpi	r16, 0x4C	; 76
 7fe:	00 03       	mulsu	r16, r16
 800:	08 3a       	cpi	r16, 0xA8	; 168
 802:	0b 3b       	cpi	r16, 0xBB	; 187
 804:	0b 49       	sbci	r16, 0x9B	; 155
 806:	13 02       	muls	r17, r19
 808:	0a 00       	.word	0x000a	; ????
 80a:	00 0d       	add	r16, r0
 80c:	2e 00       	.word	0x002e	; ????
 80e:	3f 0c       	add	r3, r15
 810:	03 0e       	add	r0, r19
 812:	3a 0b       	sbc	r19, r26
 814:	3b 0b       	sbc	r19, r27
 816:	27 0c       	add	r2, r7
 818:	49 13       	cpse	r20, r25
 81a:	11 01       	movw	r2, r2
 81c:	12 01       	movw	r2, r4
 81e:	40 06       	cpc	r4, r16
 820:	97 42       	sbci	r25, 0x27	; 39
 822:	0c 00       	.word	0x000c	; ????
 824:	00 0e       	add	r0, r16
 826:	01 01       	movw	r0, r2
 828:	49 13       	cpse	r20, r25
 82a:	01 13       	cpse	r16, r17
 82c:	00 00       	nop
 82e:	0f 21       	and	r16, r15
 830:	00 00       	nop
 832:	00 10       	cpse	r0, r0
 834:	34 00       	.word	0x0034	; ????
 836:	03 0e       	add	r0, r19
 838:	3a 0b       	sbc	r19, r26
 83a:	3b 0b       	sbc	r19, r27
 83c:	49 13       	cpse	r20, r25
 83e:	3f 0c       	add	r3, r15
 840:	3c 0c       	add	r3, r12
 842:	00 00       	nop
 844:	00 01       	movw	r0, r0
 846:	11 01       	movw	r2, r2
 848:	25 0e       	add	r2, r21
 84a:	13 0b       	sbc	r17, r19
 84c:	03 0e       	add	r0, r19
 84e:	55 06       	cpc	r5, r21
 850:	11 01       	movw	r2, r2
 852:	52 01       	movw	r10, r4
 854:	10 06       	cpc	r1, r16
 856:	00 00       	nop
 858:	02 24       	eor	r0, r2
 85a:	00 0b       	sbc	r16, r16
 85c:	0b 3e       	cpi	r16, 0xEB	; 235
 85e:	0b 03       	fmul	r16, r19
 860:	0e 00       	.word	0x000e	; ????
 862:	00 03       	mulsu	r16, r16
 864:	24 00       	.word	0x0024	; ????
 866:	0b 0b       	sbc	r16, r27
 868:	3e 0b       	sbc	r19, r30
 86a:	03 08       	sbc	r0, r3
 86c:	00 00       	nop
 86e:	04 16       	cp	r0, r20
 870:	00 03       	mulsu	r16, r16
 872:	0e 3a       	cpi	r16, 0xAE	; 174
 874:	0b 3b       	cpi	r16, 0xBB	; 187
 876:	0b 49       	sbci	r16, 0x9B	; 155
 878:	13 00       	.word	0x0013	; ????
 87a:	00 05       	cpc	r16, r0
 87c:	2e 00       	.word	0x002e	; ????
 87e:	03 0e       	add	r0, r19
 880:	3a 0b       	sbc	r19, r26
 882:	3b 0b       	sbc	r19, r27
 884:	27 0c       	add	r2, r7
 886:	20 0b       	sbc	r18, r16
 888:	00 00       	nop
 88a:	06 2e       	mov	r0, r22
 88c:	01 03       	mulsu	r16, r17
 88e:	0e 3a       	cpi	r16, 0xAE	; 174
 890:	0b 3b       	cpi	r16, 0xBB	; 187
 892:	0b 49       	sbci	r16, 0x9B	; 155
 894:	13 20       	and	r1, r3
 896:	0b 01       	movw	r0, r22
 898:	13 00       	.word	0x0013	; ????
 89a:	00 07       	cpc	r16, r16
 89c:	34 00       	.word	0x0034	; ????
 89e:	03 08       	sbc	r0, r3
 8a0:	3a 0b       	sbc	r19, r26
 8a2:	3b 0b       	sbc	r19, r27
 8a4:	49 13       	cpse	r20, r25
 8a6:	00 00       	nop
 8a8:	08 2e       	mov	r0, r24
 8aa:	01 03       	mulsu	r16, r17
 8ac:	0e 3a       	cpi	r16, 0xAE	; 174
 8ae:	0b 3b       	cpi	r16, 0xBB	; 187
 8b0:	0b 27       	eor	r16, r27
 8b2:	0c 20       	and	r0, r12
 8b4:	0b 01       	movw	r0, r22
 8b6:	13 00       	.word	0x0013	; ????
 8b8:	00 09       	sbc	r16, r0
 8ba:	05 00       	.word	0x0005	; ????
 8bc:	03 08       	sbc	r0, r3
 8be:	3a 0b       	sbc	r19, r26
 8c0:	3b 0b       	sbc	r19, r27
 8c2:	49 13       	cpse	r20, r25
 8c4:	00 00       	nop
 8c6:	0a 2e       	mov	r0, r26
 8c8:	00 03       	mulsu	r16, r16
 8ca:	0e 3a       	cpi	r16, 0xAE	; 174
 8cc:	0b 3b       	cpi	r16, 0xBB	; 187
 8ce:	0b 27       	eor	r16, r27
 8d0:	0c 49       	sbci	r16, 0x9C	; 156
 8d2:	13 20       	and	r1, r3
 8d4:	0b 00       	.word	0x000b	; ????
 8d6:	00 0b       	sbc	r16, r16
 8d8:	05 00       	.word	0x0005	; ????
 8da:	03 0e       	add	r0, r19
 8dc:	3a 0b       	sbc	r19, r26
 8de:	3b 0b       	sbc	r19, r27
 8e0:	49 13       	cpse	r20, r25
 8e2:	00 00       	nop
 8e4:	0c 2e       	mov	r0, r28
 8e6:	01 03       	mulsu	r16, r17
 8e8:	0e 3a       	cpi	r16, 0xAE	; 174
 8ea:	0b 3b       	cpi	r16, 0xBB	; 187
 8ec:	0b 27       	eor	r16, r27
 8ee:	0c 49       	sbci	r16, 0x9C	; 156
 8f0:	13 11       	cpse	r17, r3
 8f2:	01 12       	cpse	r0, r17
 8f4:	01 40       	sbci	r16, 0x01	; 1
 8f6:	06 97       	sbiw	r24, 0x06	; 6
 8f8:	42 0c       	add	r4, r2
 8fa:	01 13       	cpse	r16, r17
 8fc:	00 00       	nop
 8fe:	0d 1d       	adc	r16, r13
 900:	01 31       	cpi	r16, 0x11	; 17
 902:	13 11       	cpse	r17, r3
 904:	01 12       	cpse	r0, r17
 906:	01 58       	subi	r16, 0x81	; 129
 908:	0b 59       	subi	r16, 0x9B	; 155
 90a:	0b 00       	.word	0x000b	; ????
 90c:	00 0e       	add	r0, r16
 90e:	0b 01       	movw	r0, r22
 910:	11 01       	movw	r2, r2
 912:	12 01       	movw	r2, r4
 914:	00 00       	nop
 916:	0f 34       	cpi	r16, 0x4F	; 79
 918:	00 31       	cpi	r16, 0x10	; 16
 91a:	13 02       	muls	r17, r19
 91c:	0a 00       	.word	0x000a	; ????
 91e:	00 10       	cpse	r0, r0
 920:	1d 00       	.word	0x001d	; ????
 922:	31 13       	cpse	r19, r17
 924:	11 01       	movw	r2, r2
 926:	12 01       	movw	r2, r4
 928:	58 0b       	sbc	r21, r24
 92a:	59 0b       	sbc	r21, r25
 92c:	00 00       	nop
 92e:	11 2e       	mov	r1, r17
 930:	01 03       	mulsu	r16, r17
 932:	0e 3a       	cpi	r16, 0xAE	; 174
 934:	0b 3b       	cpi	r16, 0xBB	; 187
 936:	0b 27       	eor	r16, r27
 938:	0c 11       	cpse	r16, r12
 93a:	01 12       	cpse	r0, r17
 93c:	01 40       	sbci	r16, 0x01	; 1
 93e:	06 97       	sbiw	r24, 0x06	; 6
 940:	42 0c       	add	r4, r2
 942:	01 13       	cpse	r16, r17
 944:	00 00       	nop
 946:	12 05       	cpc	r17, r2
 948:	00 03       	mulsu	r16, r16
 94a:	08 3a       	cpi	r16, 0xA8	; 168
 94c:	0b 3b       	cpi	r16, 0xBB	; 187
 94e:	0b 49       	sbci	r16, 0x9B	; 155
 950:	13 02       	muls	r17, r19
 952:	0a 00       	.word	0x000a	; ????
 954:	00 13       	cpse	r16, r16
 956:	05 00       	.word	0x0005	; ????
 958:	31 13       	cpse	r19, r17
 95a:	02 0a       	sbc	r0, r18
 95c:	00 00       	nop
 95e:	14 2e       	mov	r1, r20
 960:	01 03       	mulsu	r16, r17
 962:	0e 3a       	cpi	r16, 0xAE	; 174
 964:	0b 3b       	cpi	r16, 0xBB	; 187
 966:	0b 27       	eor	r16, r27
 968:	0c 11       	cpse	r16, r12
 96a:	01 12       	cpse	r0, r17
 96c:	01 40       	sbci	r16, 0x01	; 1
 96e:	06 96       	adiw	r24, 0x06	; 6
 970:	42 0c       	add	r4, r2
 972:	01 13       	cpse	r16, r17
 974:	00 00       	nop
 976:	15 2e       	mov	r1, r21
 978:	00 3f       	cpi	r16, 0xF0	; 240
 97a:	0c 03       	fmul	r16, r20
 97c:	0e 3a       	cpi	r16, 0xAE	; 174
 97e:	0b 3b       	cpi	r16, 0xBB	; 187
 980:	0b 27       	eor	r16, r27
 982:	0c 11       	cpse	r16, r12
 984:	01 12       	cpse	r0, r17
 986:	01 40       	sbci	r16, 0x01	; 1
 988:	0a 97       	sbiw	r24, 0x0a	; 10
 98a:	42 0c       	add	r4, r2
 98c:	00 00       	nop
 98e:	16 2e       	mov	r1, r22
 990:	00 3f       	cpi	r16, 0xF0	; 240
 992:	0c 03       	fmul	r16, r20
 994:	0e 3a       	cpi	r16, 0xAE	; 174
 996:	0b 3b       	cpi	r16, 0xBB	; 187
 998:	0b 27       	eor	r16, r27
 99a:	0c 11       	cpse	r16, r12
 99c:	01 12       	cpse	r0, r17
 99e:	01 40       	sbci	r16, 0x01	; 1
 9a0:	06 97       	sbiw	r24, 0x06	; 6
 9a2:	42 0c       	add	r4, r2
 9a4:	00 00       	nop
 9a6:	17 34       	cpi	r17, 0x47	; 71
 9a8:	00 03       	mulsu	r16, r16
 9aa:	0e 3a       	cpi	r16, 0xAE	; 174
 9ac:	0b 3b       	cpi	r16, 0xBB	; 187
 9ae:	0b 49       	sbci	r16, 0x9B	; 155
 9b0:	13 3f       	cpi	r17, 0xF3	; 243
 9b2:	0c 3c       	cpi	r16, 0xCC	; 204
 9b4:	0c 00       	.word	0x000c	; ????
 9b6:	00 18       	sub	r0, r0
 9b8:	01 01       	movw	r0, r2
 9ba:	49 13       	cpse	r20, r25
 9bc:	01 13       	cpse	r16, r17
 9be:	00 00       	nop
 9c0:	19 21       	and	r17, r9
 9c2:	00 00       	nop
	...

Disassembly of section .debug_line:

00000000 <.debug_line>:
   0:	16 00       	.word	0x0016	; ????
   2:	00 00       	nop
   4:	02 00       	.word	0x0002	; ????
   6:	10 00       	.word	0x0010	; ????
   8:	00 00       	nop
   a:	02 01       	movw	r0, r4
   c:	fb 0e       	add	r15, r27
   e:	0a 00       	.word	0x000a	; ????
  10:	01 01       	movw	r0, r2
  12:	01 01       	movw	r0, r2
  14:	00 00       	nop
  16:	00 01       	movw	r0, r0
  18:	00 00       	nop
  1a:	37 02       	muls	r19, r23
  1c:	00 00       	nop
  1e:	02 00       	.word	0x0002	; ????
  20:	82 01       	movw	r16, r4
  22:	00 00       	nop
  24:	02 01       	movw	r0, r4
  26:	fb 0e       	add	r15, r27
  28:	0a 00       	.word	0x000a	; ????
  2a:	01 01       	movw	r0, r2
  2c:	01 01       	movw	r0, r2
  2e:	00 00       	nop
  30:	00 01       	movw	r0, r0
  32:	2f 68       	ori	r18, 0x8F	; 143
  34:	6f 6d       	ori	r22, 0xDF	; 223
  36:	65 2f       	mov	r22, r21
  38:	6a 61       	ori	r22, 0x1A	; 26
  3a:	6c 6f       	ori	r22, 0xFC	; 252
  3c:	2f 42       	sbci	r18, 0x2F	; 47
  3e:	41 2f       	mov	r20, r17
  40:	6d 69       	ori	r22, 0x9D	; 157
  42:	6e 64       	ori	r22, 0x4E	; 78
  44:	73 74       	andi	r23, 0x43	; 67
  46:	6f 72       	andi	r22, 0x2F	; 47
  48:	6d 73       	andi	r22, 0x3D	; 61
  4a:	2d 65       	ori	r18, 0x5D	; 93
  4c:	72 69       	ori	r23, 0x92	; 146
  4e:	6b 61       	ori	r22, 0x1B	; 27
  50:	4f 53       	subi	r20, 0x3F	; 63
  52:	32 2f       	mov	r19, r18
  54:	65 72       	andi	r22, 0x25	; 37
  56:	69 6b       	ori	r22, 0xB9	; 185
  58:	61 2f       	mov	r22, r17
  5a:	65 65       	ori	r22, 0x55	; 85
  5c:	2f 70       	andi	r18, 0x0F	; 15
  5e:	6b 67       	ori	r22, 0x7B	; 123
  60:	2f 6d       	ori	r18, 0xDF	; 223
  62:	63 75       	andi	r22, 0x53	; 83
  64:	2f 61       	ori	r18, 0x1F	; 31
  66:	74 6d       	ori	r23, 0xD4	; 212
  68:	65 6c       	ori	r22, 0xC5	; 197
  6a:	5f 61       	ori	r21, 0x1F	; 31
  6c:	74 74       	andi	r23, 0x44	; 68
  6e:	69 6e       	ori	r22, 0xE9	; 233
  70:	79 2f       	mov	r23, r25
  72:	69 6e       	ori	r22, 0xE9	; 233
  74:	63 00       	.word	0x0063	; ????
  76:	2f 68       	ori	r18, 0x8F	; 143
  78:	6f 6d       	ori	r22, 0xDF	; 223
  7a:	65 2f       	mov	r22, r21
  7c:	6a 61       	ori	r22, 0x1A	; 26
  7e:	6c 6f       	ori	r22, 0xFC	; 252
  80:	2f 42       	sbci	r18, 0x2F	; 47
  82:	41 2f       	mov	r20, r17
  84:	6d 69       	ori	r22, 0x9D	; 157
  86:	6e 64       	ori	r22, 0x4E	; 78
  88:	73 74       	andi	r23, 0x43	; 67
  8a:	6f 72       	andi	r22, 0x2F	; 47
  8c:	6d 73       	andi	r22, 0x3D	; 61
  8e:	2d 65       	ori	r18, 0x5D	; 93
  90:	72 69       	ori	r23, 0x92	; 146
  92:	6b 61       	ori	r22, 0x1B	; 27
  94:	4f 53       	subi	r20, 0x3F	; 63
  96:	32 2f       	mov	r19, r18
  98:	65 72       	andi	r22, 0x25	; 37
  9a:	69 6b       	ori	r22, 0xB9	; 185
  9c:	61 2f       	mov	r22, r17
  9e:	65 65       	ori	r22, 0x55	; 85
  a0:	2f 70       	andi	r18, 0x0F	; 15
  a2:	6b 67       	ori	r22, 0x7B	; 123
  a4:	2f 63       	ori	r18, 0x3F	; 63
  a6:	70 75       	andi	r23, 0x50	; 80
  a8:	2f 61       	ori	r18, 0x1F	; 31
  aa:	76 72       	andi	r23, 0x26	; 38
  ac:	38 2f       	mov	r19, r24
  ae:	69 6e       	ori	r22, 0xE9	; 233
  b0:	63 00       	.word	0x0063	; ????
  b2:	2f 68       	ori	r18, 0x8F	; 143
  b4:	6f 6d       	ori	r22, 0xDF	; 223
  b6:	65 2f       	mov	r22, r21
  b8:	6a 61       	ori	r22, 0x1A	; 26
  ba:	6c 6f       	ori	r22, 0xFC	; 252
  bc:	2f 42       	sbci	r18, 0x2F	; 47
  be:	41 2f       	mov	r20, r17
  c0:	6d 69       	ori	r22, 0x9D	; 157
  c2:	6e 64       	ori	r22, 0x4E	; 78
  c4:	73 74       	andi	r23, 0x43	; 67
  c6:	6f 72       	andi	r22, 0x2F	; 47
  c8:	6d 73       	andi	r22, 0x3D	; 61
  ca:	2d 65       	ori	r18, 0x5D	; 93
  cc:	72 69       	ori	r23, 0x92	; 146
  ce:	6b 61       	ori	r22, 0x1B	; 27
  d0:	4f 53       	subi	r20, 0x3F	; 63
  d2:	32 2f       	mov	r19, r18
  d4:	65 72       	andi	r22, 0x25	; 37
  d6:	69 6b       	ori	r22, 0xB9	; 185
  d8:	61 2f       	mov	r22, r17
  da:	70 6f       	ori	r23, 0xF0	; 240
  dc:	72 74       	andi	r23, 0x42	; 66
  de:	69 6e       	ori	r22, 0xE9	; 233
  e0:	67 5f       	subi	r22, 0xF7	; 247
  e2:	65 78       	andi	r22, 0x85	; 133
  e4:	61 6d       	ori	r22, 0xD1	; 209
  e6:	70 6c       	ori	r23, 0xC0	; 192
  e8:	65 73       	andi	r22, 0x35	; 53
  ea:	5f 31       	cpi	r21, 0x1F	; 31
  ec:	36 33       	cpi	r19, 0x36	; 54
  ee:	34 2f       	mov	r19, r20
  f0:	6d 6f       	ori	r22, 0xFD	; 253
  f2:	6e 6f       	ori	r22, 0xFE	; 254
  f4:	73 74       	andi	r23, 0x43	; 67
  f6:	61 63       	ori	r22, 0x31	; 49
  f8:	6b 2f       	mov	r22, r27
  fa:	45 45       	sbci	r20, 0x55	; 85
  fc:	74 65       	ori	r23, 0x54	; 84
  fe:	73 74       	andi	r23, 0x43	; 67
 100:	30 00       	.word	0x0030	; ????
 102:	2f 75       	andi	r18, 0x5F	; 95
 104:	73 72       	andi	r23, 0x23	; 35
 106:	2f 6c       	ori	r18, 0xCF	; 207
 108:	69 62       	ori	r22, 0x29	; 41
 10a:	2f 67       	ori	r18, 0x7F	; 127
 10c:	63 63       	ori	r22, 0x33	; 51
 10e:	2f 61       	ori	r18, 0x1F	; 31
 110:	76 72       	andi	r23, 0x26	; 38
 112:	2f 35       	cpi	r18, 0x5F	; 95
 114:	2e 34       	cpi	r18, 0x4E	; 78
 116:	2e 30       	cpi	r18, 0x0E	; 14
 118:	2f 69       	ori	r18, 0x9F	; 159
 11a:	6e 63       	ori	r22, 0x3E	; 62
 11c:	6c 75       	andi	r22, 0x5C	; 92
 11e:	64 65       	ori	r22, 0x54	; 84
 120:	00 2f       	mov	r16, r16
 122:	68 6f       	ori	r22, 0xF8	; 248
 124:	6d 65       	ori	r22, 0x5D	; 93
 126:	2f 6a       	ori	r18, 0xAF	; 175
 128:	61 6c       	ori	r22, 0xC1	; 193
 12a:	6f 2f       	mov	r22, r31
 12c:	42 41       	sbci	r20, 0x12	; 18
 12e:	2f 6d       	ori	r18, 0xDF	; 223
 130:	69 6e       	ori	r22, 0xE9	; 233
 132:	64 73       	andi	r22, 0x34	; 52
 134:	74 6f       	ori	r23, 0xF4	; 244
 136:	72 6d       	ori	r23, 0xD2	; 210
 138:	73 2d       	mov	r23, r3
 13a:	65 72       	andi	r22, 0x25	; 37
 13c:	69 6b       	ori	r22, 0xB9	; 185
 13e:	61 4f       	sbci	r22, 0xF1	; 241
 140:	53 32       	cpi	r21, 0x23	; 35
 142:	2f 65       	ori	r18, 0x5F	; 95
 144:	72 69       	ori	r23, 0x92	; 146
 146:	6b 61       	ori	r22, 0x1B	; 27
 148:	2f 65       	ori	r18, 0x5F	; 95
 14a:	65 2f       	mov	r22, r21
 14c:	70 6b       	ori	r23, 0xB0	; 176
 14e:	67 2f       	mov	r22, r23
 150:	63 70       	andi	r22, 0x03	; 3
 152:	75 2f       	mov	r23, r21
 154:	63 6f       	ori	r22, 0xF3	; 243
 156:	6d 6d       	ori	r22, 0xDD	; 221
 158:	6f 6e       	ori	r22, 0xEF	; 239
 15a:	2f 69       	ori	r18, 0x9F	; 159
 15c:	6e 63       	ori	r22, 0x3E	; 62
 15e:	00 00       	nop
 160:	65 65       	ori	r22, 0x55	; 85
 162:	5f 6d       	ori	r21, 0xDF	; 223
 164:	63 75       	andi	r22, 0x53	; 83
 166:	2e 68       	ori	r18, 0x8E	; 142
 168:	00 01       	movw	r0, r0
 16a:	00 00       	nop
 16c:	65 65       	ori	r22, 0x55	; 85
 16e:	5f 61       	ori	r21, 0x1F	; 31
 170:	76 72       	andi	r23, 0x26	; 38
 172:	38 5f       	subi	r19, 0xF8	; 248
 174:	63 70       	andi	r22, 0x03	; 3
 176:	75 2e       	mov	r7, r21
 178:	68 00       	.word	0x0068	; ????
 17a:	02 00       	.word	0x0002	; ????
 17c:	00 6d       	ori	r16, 0xD0	; 208
 17e:	61 69       	ori	r22, 0x91	; 145
 180:	6e 2e       	mov	r6, r30
 182:	63 00       	.word	0x0063	; ????
 184:	03 00       	.word	0x0003	; ????
 186:	00 73       	andi	r16, 0x30	; 48
 188:	74 64       	ori	r23, 0x44	; 68
 18a:	69 6e       	ori	r22, 0xE9	; 233
 18c:	74 2d       	mov	r23, r4
 18e:	67 63       	ori	r22, 0x37	; 55
 190:	63 2e       	mov	r6, r19
 192:	68 00       	.word	0x0068	; ????
 194:	04 00       	.word	0x0004	; ????
 196:	00 65       	ori	r16, 0x50	; 80
 198:	65 5f       	subi	r22, 0xF5	; 245
 19a:	74 79       	andi	r23, 0x94	; 148
 19c:	70 65       	ori	r23, 0x50	; 80
 19e:	73 2e       	mov	r7, r19
 1a0:	68 00       	.word	0x0068	; ????
 1a2:	05 00       	.word	0x0005	; ????
 1a4:	00 00       	nop
 1a6:	00 05       	cpc	r16, r0
 1a8:	02 00       	.word	0x0002	; ????
 1aa:	00 00       	nop
 1ac:	00 03       	mulsu	r16, r16
 1ae:	3e 01       	movw	r6, r28
 1b0:	03 02       	muls	r16, r19
 1b2:	09 00       	.word	0x0009	; ????
 1b4:	00 01       	movw	r0, r0
 1b6:	04 02       	muls	r16, r20
 1b8:	03 db       	rcall	.-2554   	; 0xfffff7c0 <__eeprom_end+0xff7ef7c0>
 1ba:	00 09       	sbc	r16, r0
 1bc:	00 00       	nop
 1be:	01 04       	cpc	r0, r1
 1c0:	01 03       	mulsu	r16, r17
 1c2:	b2 7f       	andi	r27, 0xF2	; 242
 1c4:	09 00       	.word	0x0009	; ????
 1c6:	00 01       	movw	r0, r0
 1c8:	09 00       	.word	0x0009	; ????
 1ca:	00 00       	nop
 1cc:	01 01       	movw	r0, r2
 1ce:	04 03       	mulsu	r16, r20
 1d0:	00 05       	cpc	r16, r0
 1d2:	02 a8       	ldd	r0, Z+50	; 0x32
 1d4:	00 00       	nop
 1d6:	00 03       	mulsu	r16, r16
 1d8:	e1 00       	.word	0x00e1	; ????
 1da:	01 03       	mulsu	r16, r17
 1dc:	09 09       	sbc	r16, r9
 1de:	08 00       	.word	0x0008	; ????
 1e0:	01 03       	mulsu	r16, r17
 1e2:	02 09       	sbc	r16, r2
 1e4:	0a 00       	.word	0x000a	; ????
 1e6:	01 09       	sbc	r16, r1
 1e8:	06 00       	.word	0x0006	; ????
 1ea:	00 01       	movw	r0, r0
 1ec:	01 04       	cpc	r0, r1
 1ee:	03 00       	.word	0x0003	; ????
 1f0:	05 02       	muls	r16, r21
 1f2:	00 00       	nop
 1f4:	00 00       	nop
 1f6:	03 f2       	brvs	.-128    	; 0x178 <EE_assert+0x4a>
 1f8:	00 01       	movw	r0, r0
 1fa:	03 02       	muls	r16, r19
 1fc:	09 00       	.word	0x0009	; ????
 1fe:	00 01       	movw	r0, r0
 200:	09 00       	.word	0x0009	; ????
 202:	00 00       	nop
 204:	01 01       	movw	r0, r2
 206:	04 03       	mulsu	r16, r20
 208:	00 05       	cpc	r16, r0
 20a:	02 c0       	rjmp	.+4      	; 0x210 <EE_assert_range+0x1e>
 20c:	00 00       	nop
 20e:	00 03       	mulsu	r16, r16
 210:	fa 00       	.word	0x00fa	; ????
 212:	01 03       	mulsu	r16, r17
 214:	07 09       	sbc	r16, r7
 216:	0a 00       	.word	0x000a	; ????
 218:	01 03       	mulsu	r16, r17
 21a:	01 09       	sbc	r16, r1
 21c:	0a 00       	.word	0x000a	; ????
 21e:	01 03       	mulsu	r16, r17
 220:	01 09       	sbc	r16, r1
 222:	06 00       	.word	0x0006	; ????
 224:	01 03       	mulsu	r16, r17
 226:	03 09       	sbc	r16, r3
 228:	06 00       	.word	0x0006	; ????
 22a:	01 03       	mulsu	r16, r17
 22c:	03 09       	sbc	r16, r3
 22e:	02 00       	.word	0x0002	; ????
 230:	01 03       	mulsu	r16, r17
 232:	01 09       	sbc	r16, r1
 234:	08 00       	.word	0x0008	; ????
 236:	01 03       	mulsu	r16, r17
 238:	01 09       	sbc	r16, r1
 23a:	12 00       	.word	0x0012	; ????
 23c:	01 03       	mulsu	r16, r17
 23e:	03 09       	sbc	r16, r3
 240:	0c 00       	.word	0x000c	; ????
 242:	01 03       	mulsu	r16, r17
 244:	78 09       	sbc	r23, r8
 246:	12 00       	.word	0x0012	; ????
 248:	01 03       	mulsu	r16, r17
 24a:	0b 09       	sbc	r16, r11
 24c:	08 00       	.word	0x0008	; ????
 24e:	01 09       	sbc	r16, r1
 250:	0c 00       	.word	0x000c	; ????
 252:	00 01       	movw	r0, r0
 254:	01 5b       	subi	r16, 0xB1	; 177
 256:	03 00       	.word	0x0003	; ????
 258:	00 02       	muls	r16, r16
 25a:	00 95       	com	r16
 25c:	01 00       	.word	0x0001	; ????
 25e:	00 02       	muls	r16, r16
 260:	01 fb       	bst	r16, 1
 262:	0e 0a       	sbc	r0, r30
 264:	00 01       	movw	r0, r0
 266:	01 01       	movw	r0, r2
 268:	01 00       	.word	0x0001	; ????
 26a:	00 00       	nop
 26c:	01 2f       	mov	r16, r17
 26e:	68 6f       	ori	r22, 0xF8	; 248
 270:	6d 65       	ori	r22, 0x5D	; 93
 272:	2f 6a       	ori	r18, 0xAF	; 175
 274:	61 6c       	ori	r22, 0xC1	; 193
 276:	6f 2f       	mov	r22, r31
 278:	42 41       	sbci	r20, 0x12	; 18
 27a:	2f 6d       	ori	r18, 0xDF	; 223
 27c:	69 6e       	ori	r22, 0xE9	; 233
 27e:	64 73       	andi	r22, 0x34	; 52
 280:	74 6f       	ori	r23, 0xF4	; 244
 282:	72 6d       	ori	r23, 0xD2	; 210
 284:	73 2d       	mov	r23, r3
 286:	65 72       	andi	r22, 0x25	; 37
 288:	69 6b       	ori	r22, 0xB9	; 185
 28a:	61 4f       	sbci	r22, 0xF1	; 241
 28c:	53 32       	cpi	r21, 0x23	; 35
 28e:	2f 65       	ori	r18, 0x5F	; 95
 290:	72 69       	ori	r23, 0x92	; 146
 292:	6b 61       	ori	r22, 0x1B	; 27
 294:	2f 65       	ori	r18, 0x5F	; 95
 296:	65 2f       	mov	r22, r21
 298:	70 6b       	ori	r23, 0xB0	; 176
 29a:	67 2f       	mov	r22, r23
 29c:	6d 63       	ori	r22, 0x3D	; 61
 29e:	75 2f       	mov	r23, r21
 2a0:	61 74       	andi	r22, 0x41	; 65
 2a2:	6d 65       	ori	r22, 0x5D	; 93
 2a4:	6c 5f       	subi	r22, 0xFC	; 252
 2a6:	61 74       	andi	r22, 0x41	; 65
 2a8:	74 69       	ori	r23, 0x94	; 148
 2aa:	6e 79       	andi	r22, 0x9E	; 158
 2ac:	2f 69       	ori	r18, 0x9F	; 159
 2ae:	6e 63       	ori	r22, 0x3E	; 62
 2b0:	00 2f       	mov	r16, r16
 2b2:	68 6f       	ori	r22, 0xF8	; 248
 2b4:	6d 65       	ori	r22, 0x5D	; 93
 2b6:	2f 6a       	ori	r18, 0xAF	; 175
 2b8:	61 6c       	ori	r22, 0xC1	; 193
 2ba:	6f 2f       	mov	r22, r31
 2bc:	42 41       	sbci	r20, 0x12	; 18
 2be:	2f 6d       	ori	r18, 0xDF	; 223
 2c0:	69 6e       	ori	r22, 0xE9	; 233
 2c2:	64 73       	andi	r22, 0x34	; 52
 2c4:	74 6f       	ori	r23, 0xF4	; 244
 2c6:	72 6d       	ori	r23, 0xD2	; 210
 2c8:	73 2d       	mov	r23, r3
 2ca:	65 72       	andi	r22, 0x25	; 37
 2cc:	69 6b       	ori	r22, 0xB9	; 185
 2ce:	61 4f       	sbci	r22, 0xF1	; 241
 2d0:	53 32       	cpi	r21, 0x23	; 35
 2d2:	2f 65       	ori	r18, 0x5F	; 95
 2d4:	72 69       	ori	r23, 0x92	; 146
 2d6:	6b 61       	ori	r22, 0x1B	; 27
 2d8:	2f 65       	ori	r18, 0x5F	; 95
 2da:	65 2f       	mov	r22, r21
 2dc:	70 6b       	ori	r23, 0xB0	; 176
 2de:	67 2f       	mov	r22, r23
 2e0:	63 70       	andi	r22, 0x03	; 3
 2e2:	75 2f       	mov	r23, r21
 2e4:	61 76       	andi	r22, 0x61	; 97
 2e6:	72 38       	cpi	r23, 0x82	; 130
 2e8:	2f 69       	ori	r18, 0x9F	; 159
 2ea:	6e 63       	ori	r22, 0x3E	; 62
 2ec:	00 2f       	mov	r16, r16
 2ee:	68 6f       	ori	r22, 0xF8	; 248
 2f0:	6d 65       	ori	r22, 0x5D	; 93
 2f2:	2f 6a       	ori	r18, 0xAF	; 175
 2f4:	61 6c       	ori	r22, 0xC1	; 193
 2f6:	6f 2f       	mov	r22, r31
 2f8:	42 41       	sbci	r20, 0x12	; 18
 2fa:	2f 6d       	ori	r18, 0xDF	; 223
 2fc:	69 6e       	ori	r22, 0xE9	; 233
 2fe:	64 73       	andi	r22, 0x34	; 52
 300:	74 6f       	ori	r23, 0xF4	; 244
 302:	72 6d       	ori	r23, 0xD2	; 210
 304:	73 2d       	mov	r23, r3
 306:	65 72       	andi	r22, 0x25	; 37
 308:	69 6b       	ori	r22, 0xB9	; 185
 30a:	61 4f       	sbci	r22, 0xF1	; 241
 30c:	53 32       	cpi	r21, 0x23	; 35
 30e:	2f 65       	ori	r18, 0x5F	; 95
 310:	72 69       	ori	r23, 0x92	; 146
 312:	6b 61       	ori	r22, 0x1B	; 27
 314:	2f 65       	ori	r18, 0x5F	; 95
 316:	65 2f       	mov	r22, r21
 318:	70 6b       	ori	r23, 0xB0	; 176
 31a:	67 2f       	mov	r22, r23
 31c:	74 65       	ori	r23, 0x54	; 84
 31e:	73 74       	andi	r23, 0x43	; 67
 320:	2f 61       	ori	r18, 0x1F	; 31
 322:	73 73       	andi	r23, 0x33	; 51
 324:	65 72       	andi	r22, 0x25	; 37
 326:	74 2f       	mov	r23, r20
 328:	73 72       	andi	r23, 0x23	; 35
 32a:	63 00       	.word	0x0063	; ????
 32c:	2f 68       	ori	r18, 0x8F	; 143
 32e:	6f 6d       	ori	r22, 0xDF	; 223
 330:	65 2f       	mov	r22, r21
 332:	6a 61       	ori	r22, 0x1A	; 26
 334:	6c 6f       	ori	r22, 0xFC	; 252
 336:	2f 42       	sbci	r18, 0x2F	; 47
 338:	41 2f       	mov	r20, r17
 33a:	6d 69       	ori	r22, 0x9D	; 157
 33c:	6e 64       	ori	r22, 0x4E	; 78
 33e:	73 74       	andi	r23, 0x43	; 67
 340:	6f 72       	andi	r22, 0x2F	; 47
 342:	6d 73       	andi	r22, 0x3D	; 61
 344:	2d 65       	ori	r18, 0x5D	; 93
 346:	72 69       	ori	r23, 0x92	; 146
 348:	6b 61       	ori	r22, 0x1B	; 27
 34a:	4f 53       	subi	r20, 0x3F	; 63
 34c:	32 2f       	mov	r19, r18
 34e:	65 72       	andi	r22, 0x25	; 37
 350:	69 6b       	ori	r22, 0xB9	; 185
 352:	61 2f       	mov	r22, r17
 354:	65 65       	ori	r22, 0x55	; 85
 356:	2f 70       	andi	r18, 0x0F	; 15
 358:	6b 67       	ori	r22, 0x7B	; 123
 35a:	2f 63       	ori	r18, 0x3F	; 63
 35c:	70 75       	andi	r23, 0x50	; 80
 35e:	2f 63       	ori	r18, 0x3F	; 63
 360:	6f 6d       	ori	r22, 0xDF	; 223
 362:	6d 6f       	ori	r22, 0xFD	; 253
 364:	6e 2f       	mov	r22, r30
 366:	69 6e       	ori	r22, 0xE9	; 233
 368:	63 00       	.word	0x0063	; ????
 36a:	2f 68       	ori	r18, 0x8F	; 143
 36c:	6f 6d       	ori	r22, 0xDF	; 223
 36e:	65 2f       	mov	r22, r21
 370:	6a 61       	ori	r22, 0x1A	; 26
 372:	6c 6f       	ori	r22, 0xFC	; 252
 374:	2f 42       	sbci	r18, 0x2F	; 47
 376:	41 2f       	mov	r20, r17
 378:	6d 69       	ori	r22, 0x9D	; 157
 37a:	6e 64       	ori	r22, 0x4E	; 78
 37c:	73 74       	andi	r23, 0x43	; 67
 37e:	6f 72       	andi	r22, 0x2F	; 47
 380:	6d 73       	andi	r22, 0x3D	; 61
 382:	2d 65       	ori	r18, 0x5D	; 93
 384:	72 69       	ori	r23, 0x92	; 146
 386:	6b 61       	ori	r22, 0x1B	; 27
 388:	4f 53       	subi	r20, 0x3F	; 63
 38a:	32 2f       	mov	r19, r18
 38c:	65 72       	andi	r22, 0x25	; 37
 38e:	69 6b       	ori	r22, 0xB9	; 185
 390:	61 2f       	mov	r22, r17
 392:	65 65       	ori	r22, 0x55	; 85
 394:	2f 70       	andi	r18, 0x0F	; 15
 396:	6b 67       	ori	r22, 0x7B	; 123
 398:	2f 74       	andi	r18, 0x4F	; 79
 39a:	65 73       	andi	r22, 0x35	; 53
 39c:	74 2f       	mov	r23, r20
 39e:	61 73       	andi	r22, 0x31	; 49
 3a0:	73 65       	ori	r23, 0x53	; 83
 3a2:	72 74       	andi	r23, 0x42	; 66
 3a4:	2f 69       	ori	r18, 0x9F	; 159
 3a6:	6e 63       	ori	r22, 0x3E	; 62
 3a8:	00 00       	nop
 3aa:	65 65       	ori	r22, 0x55	; 85
 3ac:	5f 6d       	ori	r21, 0xDF	; 223
 3ae:	63 75       	andi	r22, 0x53	; 83
 3b0:	2e 68       	ori	r18, 0x8E	; 142
 3b2:	00 01       	movw	r0, r0
 3b4:	00 00       	nop
 3b6:	65 65       	ori	r22, 0x55	; 85
 3b8:	5f 61       	ori	r21, 0x1F	; 31
 3ba:	76 72       	andi	r23, 0x26	; 38
 3bc:	38 5f       	subi	r19, 0xF8	; 248
 3be:	63 70       	andi	r22, 0x03	; 3
 3c0:	75 2e       	mov	r7, r21
 3c2:	68 00       	.word	0x0068	; ????
 3c4:	02 00       	.word	0x0002	; ????
 3c6:	00 65       	ori	r16, 0x50	; 80
 3c8:	65 5f       	subi	r22, 0xF5	; 245
 3ca:	61 73       	andi	r22, 0x31	; 49
 3cc:	73 65       	ori	r23, 0x53	; 83
 3ce:	72 74       	andi	r23, 0x42	; 66
 3d0:	2e 63       	ori	r18, 0x3E	; 62
 3d2:	00 03       	mulsu	r16, r16
 3d4:	00 00       	nop
 3d6:	65 65       	ori	r22, 0x55	; 85
 3d8:	5f 74       	andi	r21, 0x4F	; 79
 3da:	79 70       	andi	r23, 0x09	; 9
 3dc:	65 73       	andi	r22, 0x35	; 53
 3de:	2e 68       	ori	r18, 0x8E	; 142
 3e0:	00 04       	cpc	r0, r0
 3e2:	00 00       	nop
 3e4:	65 65       	ori	r22, 0x55	; 85
 3e6:	5f 61       	ori	r21, 0x1F	; 31
 3e8:	73 73       	andi	r23, 0x33	; 51
 3ea:	65 72       	andi	r22, 0x25	; 37
 3ec:	74 2e       	mov	r7, r20
 3ee:	68 00       	.word	0x0068	; ????
 3f0:	05 00       	.word	0x0005	; ????
 3f2:	00 00       	nop
 3f4:	00 05       	cpc	r16, r0
 3f6:	02 00       	.word	0x0002	; ????
 3f8:	00 00       	nop
 3fa:	00 03       	mulsu	r16, r16
 3fc:	3e 01       	movw	r6, r28
 3fe:	03 02       	muls	r16, r19
 400:	09 00       	.word	0x0009	; ????
 402:	00 01       	movw	r0, r0
 404:	04 02       	muls	r16, r20
 406:	03 db       	rcall	.-2554   	; 0xfffffa0e <__eeprom_end+0xff7efa0e>
 408:	00 09       	sbc	r16, r0
 40a:	00 00       	nop
 40c:	01 04       	cpc	r0, r1
 40e:	01 03       	mulsu	r16, r17
 410:	b2 7f       	andi	r27, 0xF2	; 242
 412:	09 00       	.word	0x0009	; ????
 414:	00 01       	movw	r0, r0
 416:	09 00       	.word	0x0009	; ????
 418:	00 00       	nop
 41a:	01 01       	movw	r0, r2
 41c:	04 03       	mulsu	r16, r20
 41e:	00 05       	cpc	r16, r0
 420:	02 2e       	mov	r0, r18
 422:	01 00       	.word	0x0001	; ????
 424:	00 03       	mulsu	r16, r16
 426:	33 01       	movw	r6, r6
 428:	03 02       	muls	r16, r19
 42a:	09 14       	cp	r0, r9
 42c:	00 01       	movw	r0, r0
 42e:	03 01       	movw	r0, r6
 430:	09 14       	cp	r0, r9
 432:	00 01       	movw	r0, r0
 434:	03 01       	movw	r0, r6
 436:	09 12       	cpse	r0, r25
 438:	00 01       	movw	r0, r0
 43a:	03 03       	mulsu	r16, r19
 43c:	09 04       	cpc	r0, r9
 43e:	00 01       	movw	r0, r0
 440:	03 01       	movw	r0, r6
 442:	09 08       	sbc	r0, r9
 444:	00 01       	movw	r0, r0
 446:	03 01       	movw	r0, r6
 448:	09 06       	cpc	r0, r25
 44a:	00 01       	movw	r0, r0
 44c:	03 02       	muls	r16, r19
 44e:	09 14       	cp	r0, r9
 450:	00 01       	movw	r0, r0
 452:	03 01       	movw	r0, r6
 454:	09 12       	cpse	r0, r25
 456:	00 01       	movw	r0, r0
 458:	03 04       	cpc	r0, r3
 45a:	09 04       	cpc	r0, r9
 45c:	00 01       	movw	r0, r0
 45e:	03 01       	movw	r0, r6
 460:	09 12       	cpse	r0, r25
 462:	00 01       	movw	r0, r0
 464:	03 04       	cpc	r0, r3
 466:	09 04       	cpc	r0, r9
 468:	00 01       	movw	r0, r0
 46a:	03 01       	movw	r0, r6
 46c:	09 12       	cpse	r0, r25
 46e:	00 01       	movw	r0, r0
 470:	03 04       	cpc	r0, r3
 472:	09 04       	cpc	r0, r9
 474:	00 01       	movw	r0, r0
 476:	03 01       	movw	r0, r6
 478:	09 12       	cpse	r0, r25
 47a:	00 01       	movw	r0, r0
 47c:	03 02       	muls	r16, r19
 47e:	09 02       	muls	r16, r25
 480:	00 01       	movw	r0, r0
 482:	09 0e       	add	r0, r25
 484:	00 00       	nop
 486:	01 01       	movw	r0, r2
 488:	04 03       	mulsu	r16, r20
 48a:	00 05       	cpc	r16, r0
 48c:	02 00       	.word	0x0002	; ????
 48e:	00 00       	nop
 490:	00 03       	mulsu	r16, r16
 492:	d7 00       	.word	0x00d7	; ????
 494:	01 03       	mulsu	r16, r17
 496:	02 09       	sbc	r16, r2
 498:	00 00       	nop
 49a:	01 03       	mulsu	r16, r17
 49c:	01 09       	sbc	r16, r1
 49e:	00 00       	nop
 4a0:	01 03       	mulsu	r16, r17
 4a2:	01 09       	sbc	r16, r1
 4a4:	00 00       	nop
 4a6:	01 03       	mulsu	r16, r17
 4a8:	03 09       	sbc	r16, r3
 4aa:	00 00       	nop
 4ac:	01 00       	.word	0x0001	; ????
 4ae:	02 04       	cpc	r0, r2
 4b0:	01 03       	mulsu	r16, r17
 4b2:	01 09       	sbc	r16, r1
 4b4:	00 00       	nop
 4b6:	01 00       	.word	0x0001	; ????
 4b8:	02 04       	cpc	r0, r2
 4ba:	01 03       	mulsu	r16, r17
 4bc:	7f 09       	sbc	r23, r15
 4be:	00 00       	nop
 4c0:	01 03       	mulsu	r16, r17
 4c2:	02 09       	sbc	r16, r2
 4c4:	00 00       	nop
 4c6:	01 03       	mulsu	r16, r17
 4c8:	01 09       	sbc	r16, r1
 4ca:	00 00       	nop
 4cc:	01 03       	mulsu	r16, r17
 4ce:	03 09       	sbc	r16, r3
 4d0:	00 00       	nop
 4d2:	01 03       	mulsu	r16, r17
 4d4:	01 09       	sbc	r16, r1
 4d6:	00 00       	nop
 4d8:	01 03       	mulsu	r16, r17
 4da:	02 09       	sbc	r16, r2
 4dc:	00 00       	nop
 4de:	01 09       	sbc	r16, r1
 4e0:	00 00       	nop
 4e2:	00 01       	movw	r0, r0
 4e4:	01 04       	cpc	r0, r1
 4e6:	03 00       	.word	0x0003	; ????
 4e8:	05 02       	muls	r16, r21
 4ea:	00 00       	nop
 4ec:	00 00       	nop
 4ee:	03 ee       	ldi	r16, 0xE3	; 227
 4f0:	00 01       	movw	r0, r0
 4f2:	03 02       	muls	r16, r19
 4f4:	09 00       	.word	0x0009	; ????
 4f6:	00 01       	movw	r0, r0
 4f8:	03 01       	movw	r0, r6
 4fa:	09 00       	.word	0x0009	; ????
 4fc:	00 01       	movw	r0, r0
 4fe:	03 01       	movw	r0, r6
 500:	09 00       	.word	0x0009	; ????
 502:	00 01       	movw	r0, r0
 504:	03 03       	mulsu	r16, r19
 506:	09 00       	.word	0x0009	; ????
 508:	00 01       	movw	r0, r0
 50a:	00 02       	muls	r16, r16
 50c:	04 01       	movw	r0, r8
 50e:	03 01       	movw	r0, r6
 510:	09 00       	.word	0x0009	; ????
 512:	00 01       	movw	r0, r0
 514:	00 02       	muls	r16, r16
 516:	04 01       	movw	r0, r8
 518:	03 7f       	andi	r16, 0xF3	; 243
 51a:	09 00       	.word	0x0009	; ????
 51c:	00 01       	movw	r0, r0
 51e:	03 02       	muls	r16, r19
 520:	09 00       	.word	0x0009	; ????
 522:	00 01       	movw	r0, r0
 524:	03 01       	movw	r0, r6
 526:	09 00       	.word	0x0009	; ????
 528:	00 01       	movw	r0, r0
 52a:	03 03       	mulsu	r16, r19
 52c:	09 00       	.word	0x0009	; ????
 52e:	00 01       	movw	r0, r0
 530:	03 01       	movw	r0, r6
 532:	09 00       	.word	0x0009	; ????
 534:	00 01       	movw	r0, r0
 536:	03 02       	muls	r16, r19
 538:	09 00       	.word	0x0009	; ????
 53a:	00 01       	movw	r0, r0
 53c:	09 00       	.word	0x0009	; ????
 53e:	00 00       	nop
 540:	01 01       	movw	r0, r2
 542:	04 03       	mulsu	r16, r20
 544:	00 05       	cpc	r16, r0
 546:	02 f2       	brmi	.-128    	; 0x4c8 <__LOCK_REGION_LENGTH__+0xc8>
 548:	01 00       	.word	0x0001	; ????
 54a:	00 03       	mulsu	r16, r16
 54c:	85 01       	movw	r16, r10
 54e:	01 03       	mulsu	r16, r17
 550:	03 09       	sbc	r16, r3
 552:	12 00       	.word	0x0012	; ????
 554:	01 03       	mulsu	r16, r17
 556:	01 09       	sbc	r16, r1
 558:	06 00       	.word	0x0006	; ????
 55a:	01 03       	mulsu	r16, r17
 55c:	01 09       	sbc	r16, r1
 55e:	14 00       	.word	0x0014	; ????
 560:	01 03       	mulsu	r16, r17
 562:	01 09       	sbc	r16, r1
 564:	12 00       	.word	0x0012	; ????
 566:	01 00       	.word	0x0001	; ????
 568:	02 04       	cpc	r0, r2
 56a:	02 03       	mulsu	r16, r18
 56c:	7d 09       	sbc	r23, r13
 56e:	04 00       	.word	0x0004	; ????
 570:	01 00       	.word	0x0001	; ????
 572:	02 04       	cpc	r0, r2
 574:	01 06       	cpc	r0, r17
 576:	03 00       	.word	0x0003	; ????
 578:	09 06       	cpc	r0, r25
 57a:	00 01       	movw	r0, r0
 57c:	06 03       	mulsu	r16, r22
 57e:	07 09       	sbc	r16, r7
 580:	08 00       	.word	0x0008	; ????
 582:	01 03       	mulsu	r16, r17
 584:	01 09       	sbc	r16, r1
 586:	12 00       	.word	0x0012	; ????
 588:	01 03       	mulsu	r16, r17
 58a:	01 09       	sbc	r16, r1
 58c:	02 00       	.word	0x0002	; ????
 58e:	01 09       	sbc	r16, r1
 590:	0e 00       	.word	0x000e	; ????
 592:	00 01       	movw	r0, r0
 594:	01 04       	cpc	r0, r1
 596:	03 00       	.word	0x0003	; ????
 598:	05 02       	muls	r16, r21
 59a:	64 02       	muls	r22, r20
 59c:	00 00       	nop
 59e:	03 96       	adiw	r24, 0x03	; 3
 5a0:	01 01       	movw	r0, r2
 5a2:	03 01       	movw	r0, r6
 5a4:	09 08       	sbc	r0, r9
 5a6:	00 01       	movw	r0, r0
 5a8:	03 01       	movw	r0, r6
 5aa:	09 04       	cpc	r0, r9
 5ac:	00 01       	movw	r0, r0
 5ae:	09 06       	cpc	r0, r25
 5b0:	00 00       	nop
 5b2:	01 01       	movw	r0, r2
 5b4:	f7 02       	muls	r31, r23
 5b6:	00 00       	nop
 5b8:	02 00       	.word	0x0002	; ????
 5ba:	01 02       	muls	r16, r17
 5bc:	00 00       	nop
 5be:	02 01       	movw	r0, r4
 5c0:	fb 0e       	add	r15, r27
 5c2:	0a 00       	.word	0x000a	; ????
 5c4:	01 01       	movw	r0, r2
 5c6:	01 01       	movw	r0, r2
 5c8:	00 00       	nop
 5ca:	00 01       	movw	r0, r0
 5cc:	2f 68       	ori	r18, 0x8F	; 143
 5ce:	6f 6d       	ori	r22, 0xDF	; 223
 5d0:	65 2f       	mov	r22, r21
 5d2:	6a 61       	ori	r22, 0x1A	; 26
 5d4:	6c 6f       	ori	r22, 0xFC	; 252
 5d6:	2f 42       	sbci	r18, 0x2F	; 47
 5d8:	41 2f       	mov	r20, r17
 5da:	6d 69       	ori	r22, 0x9D	; 157
 5dc:	6e 64       	ori	r22, 0x4E	; 78
 5de:	73 74       	andi	r23, 0x43	; 67
 5e0:	6f 72       	andi	r22, 0x2F	; 47
 5e2:	6d 73       	andi	r22, 0x3D	; 61
 5e4:	2d 65       	ori	r18, 0x5D	; 93
 5e6:	72 69       	ori	r23, 0x92	; 146
 5e8:	6b 61       	ori	r22, 0x1B	; 27
 5ea:	4f 53       	subi	r20, 0x3F	; 63
 5ec:	32 2f       	mov	r19, r18
 5ee:	65 72       	andi	r22, 0x25	; 37
 5f0:	69 6b       	ori	r22, 0xB9	; 185
 5f2:	61 2f       	mov	r22, r17
 5f4:	65 65       	ori	r22, 0x55	; 85
 5f6:	2f 70       	andi	r18, 0x0F	; 15
 5f8:	6b 67       	ori	r22, 0x7B	; 123
 5fa:	2f 63       	ori	r18, 0x3F	; 63
 5fc:	70 75       	andi	r23, 0x50	; 80
 5fe:	2f 61       	ori	r18, 0x1F	; 31
 600:	76 72       	andi	r23, 0x26	; 38
 602:	38 2f       	mov	r19, r24
 604:	69 6e       	ori	r22, 0xE9	; 233
 606:	63 00       	.word	0x0063	; ????
 608:	2f 68       	ori	r18, 0x8F	; 143
 60a:	6f 6d       	ori	r22, 0xDF	; 223
 60c:	65 2f       	mov	r22, r21
 60e:	6a 61       	ori	r22, 0x1A	; 26
 610:	6c 6f       	ori	r22, 0xFC	; 252
 612:	2f 42       	sbci	r18, 0x2F	; 47
 614:	41 2f       	mov	r20, r17
 616:	6d 69       	ori	r22, 0x9D	; 157
 618:	6e 64       	ori	r22, 0x4E	; 78
 61a:	73 74       	andi	r23, 0x43	; 67
 61c:	6f 72       	andi	r22, 0x2F	; 47
 61e:	6d 73       	andi	r22, 0x3D	; 61
 620:	2d 65       	ori	r18, 0x5D	; 93
 622:	72 69       	ori	r23, 0x92	; 146
 624:	6b 61       	ori	r22, 0x1B	; 27
 626:	4f 53       	subi	r20, 0x3F	; 63
 628:	32 2f       	mov	r19, r18
 62a:	65 72       	andi	r22, 0x25	; 37
 62c:	69 6b       	ori	r22, 0xB9	; 185
 62e:	61 2f       	mov	r22, r17
 630:	65 65       	ori	r22, 0x55	; 85
 632:	2f 70       	andi	r18, 0x0F	; 15
 634:	6b 67       	ori	r22, 0x7B	; 123
 636:	2f 63       	ori	r18, 0x3F	; 63
 638:	70 75       	andi	r23, 0x50	; 80
 63a:	2f 63       	ori	r18, 0x3F	; 63
 63c:	6f 6d       	ori	r22, 0xDF	; 223
 63e:	6d 6f       	ori	r22, 0xFD	; 253
 640:	6e 2f       	mov	r22, r30
 642:	69 6e       	ori	r22, 0xE9	; 233
 644:	63 00       	.word	0x0063	; ????
 646:	2f 68       	ori	r18, 0x8F	; 143
 648:	6f 6d       	ori	r22, 0xDF	; 223
 64a:	65 2f       	mov	r22, r21
 64c:	6a 61       	ori	r22, 0x1A	; 26
 64e:	6c 6f       	ori	r22, 0xFC	; 252
 650:	2f 42       	sbci	r18, 0x2F	; 47
 652:	41 2f       	mov	r20, r17
 654:	6d 69       	ori	r22, 0x9D	; 157
 656:	6e 64       	ori	r22, 0x4E	; 78
 658:	73 74       	andi	r23, 0x43	; 67
 65a:	6f 72       	andi	r22, 0x2F	; 47
 65c:	6d 73       	andi	r22, 0x3D	; 61
 65e:	2d 65       	ori	r18, 0x5D	; 93
 660:	72 69       	ori	r23, 0x92	; 146
 662:	6b 61       	ori	r22, 0x1B	; 27
 664:	4f 53       	subi	r20, 0x3F	; 63
 666:	32 2f       	mov	r19, r18
 668:	65 72       	andi	r22, 0x25	; 37
 66a:	69 6b       	ori	r22, 0xB9	; 185
 66c:	61 2f       	mov	r22, r17
 66e:	65 65       	ori	r22, 0x55	; 85
 670:	2f 70       	andi	r18, 0x0F	; 15
 672:	6b 67       	ori	r22, 0x7B	; 123
 674:	2f 6d       	ori	r18, 0xDF	; 223
 676:	63 75       	andi	r22, 0x53	; 83
 678:	2f 61       	ori	r18, 0x1F	; 31
 67a:	74 6d       	ori	r23, 0xD4	; 212
 67c:	65 6c       	ori	r22, 0xC5	; 197
 67e:	5f 61       	ori	r21, 0x1F	; 31
 680:	74 74       	andi	r23, 0x44	; 68
 682:	69 6e       	ori	r22, 0xE9	; 233
 684:	79 2f       	mov	r23, r25
 686:	69 6e       	ori	r22, 0xE9	; 233
 688:	63 00       	.word	0x0063	; ????
 68a:	2f 68       	ori	r18, 0x8F	; 143
 68c:	6f 6d       	ori	r22, 0xDF	; 223
 68e:	65 2f       	mov	r22, r21
 690:	6a 61       	ori	r22, 0x1A	; 26
 692:	6c 6f       	ori	r22, 0xFC	; 252
 694:	2f 42       	sbci	r18, 0x2F	; 47
 696:	41 2f       	mov	r20, r17
 698:	6d 69       	ori	r22, 0x9D	; 157
 69a:	6e 64       	ori	r22, 0x4E	; 78
 69c:	73 74       	andi	r23, 0x43	; 67
 69e:	6f 72       	andi	r22, 0x2F	; 47
 6a0:	6d 73       	andi	r22, 0x3D	; 61
 6a2:	2d 65       	ori	r18, 0x5D	; 93
 6a4:	72 69       	ori	r23, 0x92	; 146
 6a6:	6b 61       	ori	r22, 0x1B	; 27
 6a8:	4f 53       	subi	r20, 0x3F	; 63
 6aa:	32 2f       	mov	r19, r18
 6ac:	65 72       	andi	r22, 0x25	; 37
 6ae:	69 6b       	ori	r22, 0xB9	; 185
 6b0:	61 2f       	mov	r22, r17
 6b2:	65 65       	ori	r22, 0x55	; 85
 6b4:	2f 70       	andi	r18, 0x0F	; 15
 6b6:	6b 67       	ori	r22, 0x7B	; 123
 6b8:	2f 6d       	ori	r18, 0xDF	; 223
 6ba:	63 75       	andi	r22, 0x53	; 83
 6bc:	2f 61       	ori	r18, 0x1F	; 31
 6be:	74 6d       	ori	r23, 0xD4	; 212
 6c0:	65 6c       	ori	r22, 0xC5	; 197
 6c2:	5f 61       	ori	r21, 0x1F	; 31
 6c4:	74 74       	andi	r23, 0x44	; 68
 6c6:	69 6e       	ori	r22, 0xE9	; 233
 6c8:	79 2f       	mov	r23, r25
 6ca:	73 72       	andi	r23, 0x23	; 35
 6cc:	63 00       	.word	0x0063	; ????
 6ce:	2f 75       	andi	r18, 0x5F	; 95
 6d0:	73 72       	andi	r23, 0x23	; 35
 6d2:	2f 6c       	ori	r18, 0xCF	; 207
 6d4:	69 62       	ori	r22, 0x29	; 41
 6d6:	2f 67       	ori	r18, 0x7F	; 127
 6d8:	63 63       	ori	r22, 0x33	; 51
 6da:	2f 61       	ori	r18, 0x1F	; 31
 6dc:	76 72       	andi	r23, 0x26	; 38
 6de:	2f 35       	cpi	r18, 0x5F	; 95
 6e0:	2e 34       	cpi	r18, 0x4E	; 78
 6e2:	2e 30       	cpi	r18, 0x0E	; 14
 6e4:	2f 69       	ori	r18, 0x9F	; 159
 6e6:	6e 63       	ori	r22, 0x3E	; 62
 6e8:	6c 75       	andi	r22, 0x5C	; 92
 6ea:	64 65       	ori	r22, 0x54	; 84
 6ec:	00 2f       	mov	r16, r16
 6ee:	68 6f       	ori	r22, 0xF8	; 248
 6f0:	6d 65       	ori	r22, 0x5D	; 93
 6f2:	2f 6a       	ori	r18, 0xAF	; 175
 6f4:	61 6c       	ori	r22, 0xC1	; 193
 6f6:	6f 2f       	mov	r22, r31
 6f8:	42 41       	sbci	r20, 0x12	; 18
 6fa:	2f 6d       	ori	r18, 0xDF	; 223
 6fc:	69 6e       	ori	r22, 0xE9	; 233
 6fe:	64 73       	andi	r22, 0x34	; 52
 700:	74 6f       	ori	r23, 0xF4	; 244
 702:	72 6d       	ori	r23, 0xD2	; 210
 704:	73 2d       	mov	r23, r3
 706:	65 72       	andi	r22, 0x25	; 37
 708:	69 6b       	ori	r22, 0xB9	; 185
 70a:	61 4f       	sbci	r22, 0xF1	; 241
 70c:	53 32       	cpi	r21, 0x23	; 35
 70e:	2f 65       	ori	r18, 0x5F	; 95
 710:	72 69       	ori	r23, 0x92	; 146
 712:	6b 61       	ori	r22, 0x1B	; 27
 714:	2f 65       	ori	r18, 0x5F	; 95
 716:	65 2f       	mov	r22, r21
 718:	70 6b       	ori	r23, 0xB0	; 176
 71a:	67 2f       	mov	r22, r23
 71c:	6b 65       	ori	r22, 0x5B	; 91
 71e:	72 6e       	ori	r23, 0xE2	; 226
 720:	65 6c       	ori	r22, 0xC5	; 197
 722:	2f 66       	ori	r18, 0x6F	; 111
 724:	70 2f       	mov	r23, r16
 726:	69 6e       	ori	r22, 0xE9	; 233
 728:	63 00       	.word	0x0063	; ????
 72a:	00 65       	ori	r16, 0x50	; 80
 72c:	65 5f       	subi	r22, 0xF5	; 245
 72e:	61 76       	andi	r22, 0x61	; 97
 730:	72 38       	cpi	r23, 0x82	; 130
 732:	5f 69       	ori	r21, 0x9F	; 159
 734:	6e 74       	andi	r22, 0x4E	; 78
 736:	65 72       	andi	r22, 0x25	; 37
 738:	6e 61       	ori	r22, 0x1E	; 30
 73a:	6c 2e       	mov	r6, r28
 73c:	68 00       	.word	0x0068	; ????
 73e:	01 00       	.word	0x0001	; ????
 740:	00 65       	ori	r16, 0x50	; 80
 742:	65 5f       	subi	r22, 0xF5	; 245
 744:	61 76       	andi	r22, 0x61	; 97
 746:	72 38       	cpi	r23, 0x82	; 130
 748:	5f 63       	ori	r21, 0x3F	; 63
 74a:	70 75       	andi	r23, 0x50	; 80
 74c:	2e 68       	ori	r18, 0x8E	; 142
 74e:	00 01       	movw	r0, r0
 750:	00 00       	nop
 752:	65 65       	ori	r22, 0x55	; 85
 754:	5f 63       	ori	r21, 0x3F	; 63
 756:	6f 6e       	ori	r22, 0xEF	; 239
 758:	74 65       	ori	r23, 0x54	; 84
 75a:	78 74       	andi	r23, 0x48	; 72
 75c:	2e 68       	ori	r18, 0x8E	; 142
 75e:	00 02       	muls	r16, r16
 760:	00 00       	nop
 762:	65 65       	ori	r22, 0x55	; 85
 764:	5f 6d       	ori	r21, 0xDF	; 223
 766:	63 75       	andi	r22, 0x53	; 83
 768:	2e 68       	ori	r18, 0x8E	; 142
 76a:	00 03       	mulsu	r16, r16
 76c:	00 00       	nop
 76e:	65 65       	ori	r22, 0x55	; 85
 770:	5f 69       	ori	r21, 0x9F	; 159
 772:	6e 74       	andi	r22, 0x4E	; 78
 774:	76 65       	ori	r23, 0x56	; 86
 776:	63 74       	andi	r22, 0x43	; 67
 778:	2e 63       	ori	r18, 0x3E	; 62
 77a:	00 04       	cpc	r0, r0
 77c:	00 00       	nop
 77e:	73 74       	andi	r23, 0x43	; 67
 780:	64 69       	ori	r22, 0x94	; 148
 782:	6e 74       	andi	r22, 0x4E	; 78
 784:	2d 67       	ori	r18, 0x7D	; 125
 786:	63 63       	ori	r22, 0x33	; 51
 788:	2e 68       	ori	r18, 0x8E	; 142
 78a:	00 05       	cpc	r16, r0
 78c:	00 00       	nop
 78e:	65 65       	ori	r22, 0x55	; 85
 790:	5f 74       	andi	r21, 0x4F	; 79
 792:	79 70       	andi	r23, 0x09	; 9
 794:	65 73       	andi	r22, 0x35	; 53
 796:	2e 68       	ori	r18, 0x8E	; 142
 798:	00 02       	muls	r16, r16
 79a:	00 00       	nop
 79c:	65 65       	ori	r22, 0x55	; 85
 79e:	5f 70       	andi	r21, 0x0F	; 15
 7a0:	72 69       	ori	r23, 0x92	; 146
 7a2:	6d 69       	ori	r22, 0x9D	; 157
 7a4:	74 69       	ori	r23, 0x94	; 148
 7a6:	76 65       	ori	r23, 0x56	; 86
 7a8:	73 2e       	mov	r7, r19
 7aa:	68 00       	.word	0x0068	; ????
 7ac:	02 00       	.word	0x0002	; ????
 7ae:	00 65       	ori	r16, 0x50	; 80
 7b0:	65 5f       	subi	r22, 0xF5	; 245
 7b2:	63 6f       	ori	r22, 0xF3	; 243
 7b4:	6d 6d       	ori	r22, 0xDD	; 221
 7b6:	6f 6e       	ori	r22, 0xEF	; 239
 7b8:	2e 68       	ori	r18, 0x8E	; 142
 7ba:	00 06       	cpc	r0, r16
 7bc:	00 00       	nop
 7be:	00 00       	nop
 7c0:	05 02       	muls	r16, r21
 7c2:	00 00       	nop
 7c4:	00 00       	nop
 7c6:	03 d5       	rcall	.+2566   	; 0x11ce <__stack+0xccf>
 7c8:	00 01       	movw	r0, r0
 7ca:	04 02       	muls	r16, r20
 7cc:	03 d6       	rcall	.+3078   	; 0x13d4 <__stack+0xed5>
 7ce:	00 09       	sbc	r16, r0
 7d0:	00 00       	nop
 7d2:	01 03       	mulsu	r16, r17
 7d4:	78 09       	sbc	r23, r8
 7d6:	00 00       	nop
 7d8:	01 03       	mulsu	r16, r17
 7da:	0a 09       	sbc	r16, r10
 7dc:	00 00       	nop
 7de:	01 04       	cpc	r0, r1
 7e0:	01 03       	mulsu	r16, r17
 7e2:	a9 7f       	andi	r26, 0xF9	; 249
 7e4:	09 00       	.word	0x0009	; ????
 7e6:	00 01       	movw	r0, r0
 7e8:	03 01       	movw	r0, r6
 7ea:	09 00       	.word	0x0009	; ????
 7ec:	00 01       	movw	r0, r0
 7ee:	09 00       	.word	0x0009	; ????
 7f0:	00 00       	nop
 7f2:	01 01       	movw	r0, r2
 7f4:	00 05       	cpc	r16, r0
 7f6:	02 00       	.word	0x0002	; ????
 7f8:	00 00       	nop
 7fa:	00 03       	mulsu	r16, r16
 7fc:	df 00       	.word	0x00df	; ????
 7fe:	01 04       	cpc	r0, r1
 800:	02 03       	mulsu	r16, r18
 802:	d6 00       	.word	0x00d6	; ????
 804:	09 00       	.word	0x0009	; ????
 806:	00 01       	movw	r0, r0
 808:	03 01       	movw	r0, r6
 80a:	09 00       	.word	0x0009	; ????
 80c:	00 01       	movw	r0, r0
 80e:	04 01       	movw	r0, r8
 810:	03 ab       	std	Z+51, r16	; 0x33
 812:	7f 09       	sbc	r23, r15
 814:	00 00       	nop
 816:	01 09       	sbc	r16, r1
 818:	00 00       	nop
 81a:	00 01       	movw	r0, r0
 81c:	01 04       	cpc	r0, r1
 81e:	03 00       	.word	0x0003	; ????
 820:	05 02       	muls	r16, r21
 822:	00 00       	nop
 824:	00 00       	nop
 826:	03 d3       	rcall	.+1542   	; 0xe2e <__stack+0x92f>
 828:	01 01       	movw	r0, r2
 82a:	03 b8       	out	0x03, r0	; 3
 82c:	7f 09       	sbc	r23, r15
 82e:	00 00       	nop
 830:	01 03       	mulsu	r16, r17
 832:	01 09       	sbc	r16, r1
 834:	00 00       	nop
 836:	01 03       	mulsu	r16, r17
 838:	c9 00       	.word	0x00c9	; ????
 83a:	09 00       	.word	0x0009	; ????
 83c:	00 01       	movw	r0, r0
 83e:	09 00       	.word	0x0009	; ????
 840:	00 00       	nop
 842:	01 01       	movw	r0, r2
 844:	04 04       	cpc	r0, r4
 846:	00 05       	cpc	r16, r0
 848:	02 00       	.word	0x0002	; ????
 84a:	00 00       	nop
 84c:	00 03       	mulsu	r16, r16
 84e:	3e 01       	movw	r6, r28
 850:	03 02       	muls	r16, r19
 852:	09 00       	.word	0x0009	; ????
 854:	00 01       	movw	r0, r0
 856:	04 02       	muls	r16, r20
 858:	03 db       	rcall	.-2554   	; 0xfffffe60 <__eeprom_end+0xff7efe60>
 85a:	00 09       	sbc	r16, r0
 85c:	00 00       	nop
 85e:	01 04       	cpc	r0, r1
 860:	04 03       	mulsu	r16, r20
 862:	b2 7f       	andi	r27, 0xF2	; 242
 864:	09 00       	.word	0x0009	; ????
 866:	00 01       	movw	r0, r0
 868:	09 00       	.word	0x0009	; ????
 86a:	00 00       	nop
 86c:	01 01       	movw	r0, r2
 86e:	04 05       	cpc	r16, r4
 870:	00 05       	cpc	r16, r0
 872:	02 76       	andi	r16, 0x62	; 98
 874:	02 00       	.word	0x0002	; ????
 876:	00 03       	mulsu	r16, r16
 878:	34 01       	movw	r6, r8
 87a:	03 00       	.word	0x0003	; ????
 87c:	09 00       	.word	0x0009	; ????
 87e:	00 01       	movw	r0, r0
 880:	00 02       	muls	r16, r16
 882:	04 01       	movw	r0, r8
 884:	06 03       	mulsu	r16, r22
 886:	00 09       	sbc	r16, r0
 888:	02 00       	.word	0x0002	; ????
 88a:	01 09       	sbc	r16, r1
 88c:	02 00       	.word	0x0002	; ????
 88e:	00 01       	movw	r0, r0
 890:	01 04       	cpc	r0, r1
 892:	05 00       	.word	0x0005	; ????
 894:	05 02       	muls	r16, r21
 896:	00 00       	nop
 898:	00 00       	nop
 89a:	03 37       	cpi	r16, 0x73	; 115
 89c:	01 03       	mulsu	r16, r17
 89e:	01 09       	sbc	r16, r1
 8a0:	00 00       	nop
 8a2:	01 03       	mulsu	r16, r17
 8a4:	01 09       	sbc	r16, r1
 8a6:	00 00       	nop
 8a8:	01 09       	sbc	r16, r1
 8aa:	00 00       	nop
 8ac:	00 01       	movw	r0, r0
 8ae:	01 3b       	Address 0x00000000000008ae is out of bounds.
.word	0xffff	; ????

Disassembly of section .debug_frame:

00000000 <.debug_frame>:
   0:	10 00       	.word	0x0010	; ????
   2:	00 00       	nop
   4:	ff ff       	.word	0xffff	; ????
   6:	ff ff       	.word	0xffff	; ????
   8:	01 00       	.word	0x0001	; ????
   a:	02 7f       	andi	r16, 0xF2	; 242
   c:	24 0c       	add	r2, r4
   e:	20 02       	muls	r18, r16
  10:	a4 01       	movw	r20, r8
  12:	00 00       	nop
  14:	1c 00       	.word	0x001c	; ????
	...
  22:	00 00       	nop
  24:	41 0e       	add	r4, r17
  26:	03 9c       	mul	r0, r3
  28:	02 41       	sbci	r16, 0x12	; 18
  2a:	0e 04       	cpc	r0, r14
  2c:	9d 03       	fmulsu	r17, r21
  2e:	42 0d       	add	r20, r2
  30:	1c 00       	.word	0x001c	; ????
  32:	00 00       	nop
  34:	1c 00       	.word	0x001c	; ????
  36:	00 00       	nop
  38:	00 00       	nop
  3a:	00 00       	nop
  3c:	a8 00       	.word	0x00a8	; ????
  3e:	00 00       	nop
  40:	18 00       	.word	0x0018	; ????
  42:	00 00       	nop
  44:	41 0e       	add	r4, r17
  46:	03 9c       	mul	r0, r3
  48:	02 41       	sbci	r16, 0x12	; 18
  4a:	0e 04       	cpc	r0, r14
  4c:	9d 03       	fmulsu	r17, r21
  4e:	42 0d       	add	r20, r2
  50:	1c 00       	.word	0x001c	; ????
  52:	00 00       	nop
  54:	1c 00       	.word	0x001c	; ????
	...
  62:	00 00       	nop
  64:	41 0e       	add	r4, r17
  66:	03 9c       	mul	r0, r3
  68:	02 41       	sbci	r16, 0x12	; 18
  6a:	0e 04       	cpc	r0, r14
  6c:	9d 03       	fmulsu	r17, r21
  6e:	42 0d       	add	r20, r2
  70:	1c 00       	.word	0x001c	; ????
  72:	00 00       	nop
  74:	1c 00       	.word	0x001c	; ????
  76:	00 00       	nop
  78:	00 00       	nop
  7a:	00 00       	nop
  7c:	c0 00       	.word	0x00c0	; ????
  7e:	00 00       	nop
  80:	6e 00       	.word	0x006e	; ????
  82:	00 00       	nop
  84:	41 0e       	add	r4, r17
  86:	03 9c       	mul	r0, r3
  88:	02 41       	sbci	r16, 0x12	; 18
  8a:	0e 04       	cpc	r0, r14
  8c:	9d 03       	fmulsu	r17, r21
  8e:	41 0e       	add	r4, r17
  90:	06 42       	sbci	r16, 0x26	; 38
  92:	0d 1c       	adc	r0, r13
  94:	10 00       	.word	0x0010	; ????
  96:	00 00       	nop
  98:	ff ff       	.word	0xffff	; ????
  9a:	ff ff       	.word	0xffff	; ????
  9c:	01 00       	.word	0x0001	; ????
  9e:	02 7f       	andi	r16, 0xF2	; 242
  a0:	24 0c       	add	r2, r4
  a2:	20 02       	muls	r18, r16
  a4:	a4 01       	movw	r20, r8
  a6:	00 00       	nop
  a8:	1c 00       	.word	0x001c	; ????
  aa:	00 00       	nop
  ac:	94 00       	.word	0x0094	; ????
	...
  b6:	00 00       	nop
  b8:	41 0e       	add	r4, r17
  ba:	03 9c       	mul	r0, r3
  bc:	02 41       	sbci	r16, 0x12	; 18
  be:	0e 04       	cpc	r0, r14
  c0:	9d 03       	fmulsu	r17, r21
  c2:	42 0d       	add	r20, r2
  c4:	1c 00       	.word	0x001c	; ????
  c6:	00 00       	nop
  c8:	1c 00       	.word	0x001c	; ????
  ca:	00 00       	nop
  cc:	94 00       	.word	0x0094	; ????
  ce:	00 00       	nop
  d0:	2e 01       	movw	r4, r28
  d2:	00 00       	nop
  d4:	c4 00       	.word	0x00c4	; ????
  d6:	00 00       	nop
  d8:	41 0e       	add	r4, r17
  da:	03 9c       	mul	r0, r3
  dc:	02 41       	sbci	r16, 0x12	; 18
  de:	0e 04       	cpc	r0, r14
  e0:	9d 03       	fmulsu	r17, r21
  e2:	42 0e       	add	r4, r18
  e4:	08 42       	sbci	r16, 0x28	; 40
  e6:	0d 1c       	adc	r0, r13
  e8:	1c 00       	.word	0x001c	; ????
  ea:	00 00       	nop
  ec:	94 00       	.word	0x0094	; ????
	...
  f6:	00 00       	nop
  f8:	41 0e       	add	r4, r17
  fa:	03 9c       	mul	r0, r3
  fc:	02 41       	sbci	r16, 0x12	; 18
  fe:	0e 04       	cpc	r0, r14
 100:	9d 03       	fmulsu	r17, r21
 102:	42 0e       	add	r4, r18
 104:	07 42       	sbci	r16, 0x27	; 39
 106:	0d 1c       	adc	r0, r13
 108:	1c 00       	.word	0x001c	; ????
 10a:	00 00       	nop
 10c:	94 00       	.word	0x0094	; ????
	...
 116:	00 00       	nop
 118:	41 0e       	add	r4, r17
 11a:	03 9c       	mul	r0, r3
 11c:	02 41       	sbci	r16, 0x12	; 18
 11e:	0e 04       	cpc	r0, r14
 120:	9d 03       	fmulsu	r17, r21
 122:	42 0e       	add	r4, r18
 124:	07 42       	sbci	r16, 0x27	; 39
 126:	0d 1c       	adc	r0, r13
 128:	1c 00       	.word	0x001c	; ????
 12a:	00 00       	nop
 12c:	94 00       	.word	0x0094	; ????
 12e:	00 00       	nop
 130:	f2 01       	movw	r30, r4
 132:	00 00       	nop
 134:	72 00       	.word	0x0072	; ????
 136:	00 00       	nop
 138:	41 0e       	add	r4, r17
 13a:	03 9c       	mul	r0, r3
 13c:	02 41       	sbci	r16, 0x12	; 18
 13e:	0e 04       	cpc	r0, r14
 140:	9d 03       	fmulsu	r17, r21
 142:	42 0e       	add	r4, r18
 144:	08 42       	sbci	r16, 0x28	; 40
 146:	0d 1c       	adc	r0, r13
 148:	1c 00       	.word	0x001c	; ????
 14a:	00 00       	nop
 14c:	94 00       	.word	0x0094	; ????
 14e:	00 00       	nop
 150:	64 02       	muls	r22, r20
 152:	00 00       	nop
 154:	12 00       	.word	0x0012	; ????
 156:	00 00       	nop
 158:	41 0e       	add	r4, r17
 15a:	03 9c       	mul	r0, r3
 15c:	02 41       	sbci	r16, 0x12	; 18
 15e:	0e 04       	cpc	r0, r14
 160:	9d 03       	fmulsu	r17, r21
 162:	42 0d       	add	r20, r2
 164:	1c 00       	.word	0x001c	; ????
 166:	00 00       	nop
 168:	10 00       	.word	0x0010	; ????
 16a:	00 00       	nop
 16c:	ff ff       	.word	0xffff	; ????
 16e:	ff ff       	.word	0xffff	; ????
 170:	01 00       	.word	0x0001	; ????
 172:	02 7f       	andi	r16, 0xF2	; 242
 174:	24 0c       	add	r2, r4
 176:	20 02       	muls	r18, r16
 178:	a4 01       	movw	r20, r8
 17a:	00 00       	nop
 17c:	20 00       	.word	0x0020	; ????
 17e:	00 00       	nop
 180:	68 01       	movw	r12, r16
	...
 18a:	00 00       	nop
 18c:	41 0e       	add	r4, r17
 18e:	03 91       	.word	0x9103	; ????
 190:	02 41       	sbci	r16, 0x12	; 18
 192:	0e 04       	cpc	r0, r14
 194:	9c 03       	fmulsu	r17, r20
 196:	41 0e       	add	r4, r17
 198:	05 9d       	mul	r16, r5
 19a:	04 42       	sbci	r16, 0x24	; 36
 19c:	0d 1c       	adc	r0, r13
 19e:	00 00       	nop
 1a0:	1c 00       	.word	0x001c	; ????
 1a2:	00 00       	nop
 1a4:	68 01       	movw	r12, r16
	...
 1ae:	00 00       	nop
 1b0:	41 0e       	add	r4, r17
 1b2:	03 9c       	mul	r0, r3
 1b4:	02 41       	sbci	r16, 0x12	; 18
 1b6:	0e 04       	cpc	r0, r14
 1b8:	9d 03       	fmulsu	r17, r21
 1ba:	42 0e       	add	r4, r18
 1bc:	07 42       	sbci	r16, 0x27	; 39
 1be:	0d 1c       	adc	r0, r13
 1c0:	1c 00       	.word	0x001c	; ????
 1c2:	00 00       	nop
 1c4:	68 01       	movw	r12, r16
	...
 1ce:	00 00       	nop
 1d0:	41 0e       	add	r4, r17
 1d2:	03 9c       	mul	r0, r3
 1d4:	02 41       	sbci	r16, 0x12	; 18
 1d6:	0e 04       	cpc	r0, r14
 1d8:	9d 03       	fmulsu	r17, r21
 1da:	41 0e       	add	r4, r17
 1dc:	06 42       	sbci	r16, 0x26	; 38
 1de:	0d 1c       	adc	r0, r13
 1e0:	1c 00       	.word	0x001c	; ????
 1e2:	00 00       	nop
 1e4:	68 01       	movw	r12, r16
	...
 1ee:	00 00       	nop
 1f0:	41 0e       	add	r4, r17
 1f2:	03 9c       	mul	r0, r3
 1f4:	02 41       	sbci	r16, 0x12	; 18
 1f6:	0e 04       	cpc	r0, r14
 1f8:	9d 03       	fmulsu	r17, r21
 1fa:	42 0d       	add	r20, r2
 1fc:	1c 00       	.word	0x001c	; ????
 1fe:	00 00       	nop
 200:	0c 00       	.word	0x000c	; ????
 202:	00 00       	nop
 204:	68 01       	movw	r12, r16
 206:	00 00       	nop
 208:	76 02       	muls	r23, r22
 20a:	00 00       	nop
 20c:	04 00       	.word	0x0004	; ????
 20e:	00 00       	nop
 210:	1c 00       	.word	0x001c	; ????
 212:	00 00       	nop
 214:	68 01       	movw	r12, r16
	...
 21e:	00 00       	nop
 220:	41 0e       	add	r4, r17
 222:	03 9c       	mul	r0, r3
 224:	02 41       	sbci	r16, 0x12	; 18
 226:	0e 04       	cpc	r0, r14
 228:	9d 03       	fmulsu	r17, r21
 22a:	42 0d       	add	r20, r2
 22c:	1c 00       	.word	0x001c	; ????
	...

Disassembly of section .debug_str:

00000000 <.debug_str>:
   0:	61 76       	andi	r22, 0x61	; 97
   2:	72 2d       	mov	r23, r2
   4:	6c 69       	ori	r22, 0x9C	; 156
   6:	62 63       	ori	r22, 0x32	; 50
   8:	20 32       	cpi	r18, 0x20	; 32
   a:	2e 30       	cpi	r18, 0x0E	; 14
   c:	2e 30       	cpi	r18, 0x0E	; 14
   e:	00 75       	andi	r16, 0x50	; 80
  10:	69 6e       	ori	r22, 0xE9	; 233
  12:	74 38       	cpi	r23, 0x84	; 132
  14:	5f 74       	andi	r21, 0x4F	; 79
  16:	00 75       	andi	r16, 0x50	; 80
  18:	69 6e       	ori	r22, 0xE9	; 233
  1a:	74 31       	cpi	r23, 0x14	; 20
  1c:	36 5f       	subi	r19, 0xF6	; 246
  1e:	74 00       	.word	0x0074	; ????
  20:	5f 5f       	subi	r21, 0xFF	; 255
  22:	65 65       	ori	r22, 0x55	; 85
  24:	70 72       	andi	r23, 0x20	; 32
  26:	6f 6d       	ori	r22, 0xDF	; 223
  28:	00 54       	subi	r16, 0x40	; 64
  2a:	57 53       	subi	r21, 0x37	; 55
  2c:	43 52       	subi	r20, 0x23	; 35
  2e:	41 00       	.word	0x0041	; ????
  30:	54 57       	subi	r21, 0x74	; 116
  32:	53 43       	sbci	r21, 0x33	; 51
  34:	52 42       	sbci	r21, 0x22	; 34
  36:	00 54       	subi	r16, 0x40	; 64
  38:	57 53       	subi	r21, 0x37	; 55
  3a:	53 52       	subi	r21, 0x23	; 35
  3c:	41 00       	.word	0x0041	; ????
  3e:	54 57       	subi	r21, 0x74	; 116
  40:	53 41       	sbci	r21, 0x13	; 19
  42:	00 54       	subi	r16, 0x40	; 64
  44:	57 53       	subi	r21, 0x37	; 55
  46:	44 00       	.word	0x0044	; ????
  48:	54 57       	subi	r21, 0x74	; 116
  4a:	53 41       	sbci	r21, 0x13	; 19
  4c:	4d 00       	.word	0x004d	; ????
  4e:	50 4f       	sbci	r21, 0xF0	; 240
  50:	52 54       	subi	r21, 0x42	; 66
  52:	43 52       	subi	r20, 0x23	; 35
  54:	00 50       	subi	r16, 0x00	; 0
  56:	55 45       	sbci	r21, 0x55	; 85
  58:	42 00       	.word	0x0042	; ????
  5a:	44 44       	sbci	r20, 0x44	; 68
  5c:	52 42       	sbci	r21, 0x22	; 34
  5e:	00 50       	subi	r16, 0x00	; 0
  60:	49 4e       	sbci	r20, 0xE9	; 233
  62:	42 00       	.word	0x0042	; ????
  64:	50 4f       	sbci	r21, 0xF0	; 240
  66:	52 54       	subi	r21, 0x42	; 66
  68:	42 00       	.word	0x0042	; ????
  6a:	50 4f       	sbci	r21, 0xF0	; 240
  6c:	52 54       	subi	r21, 0x42	; 66
  6e:	43 52       	subi	r20, 0x23	; 35
  70:	00 50       	subi	r16, 0x00	; 0
  72:	55 45       	sbci	r21, 0x55	; 85
  74:	43 00       	.word	0x0043	; ????
  76:	50 4f       	sbci	r21, 0xF0	; 240
  78:	52 54       	subi	r21, 0x42	; 66
  7a:	43 00       	.word	0x0043	; ????
  7c:	44 44       	sbci	r20, 0x44	; 68
  7e:	52 43       	sbci	r21, 0x32	; 50
  80:	00 50       	subi	r16, 0x00	; 0
  82:	49 4e       	sbci	r20, 0xE9	; 233
  84:	43 00       	.word	0x0043	; ????
  86:	50 4f       	sbci	r21, 0xF0	; 240
  88:	52 54       	subi	r21, 0x42	; 66
  8a:	43 52       	subi	r20, 0x23	; 35
  8c:	00 50       	subi	r16, 0x00	; 0
  8e:	55 45       	sbci	r21, 0x55	; 85
  90:	41 00       	.word	0x0041	; ????
  92:	50 4f       	sbci	r21, 0xF0	; 240
  94:	52 54       	subi	r21, 0x42	; 66
  96:	41 00       	.word	0x0041	; ????
  98:	44 44       	sbci	r20, 0x44	; 68
  9a:	52 41       	sbci	r21, 0x12	; 18
  9c:	00 50       	subi	r16, 0x00	; 0
  9e:	49 4e       	sbci	r20, 0xE9	; 233
  a0:	41 00       	.word	0x0041	; ????
  a2:	41 44       	sbci	r20, 0x41	; 65
  a4:	4d 55       	subi	r20, 0x5D	; 93
  a6:	58 00       	.word	0x0058	; ????
  a8:	41 44       	sbci	r20, 0x41	; 65
  aa:	43 53       	subi	r20, 0x33	; 51
  ac:	52 41       	sbci	r21, 0x12	; 18
  ae:	00 41       	sbci	r16, 0x10	; 16
  b0:	44 43       	sbci	r20, 0x34	; 52
  b2:	00 41       	sbci	r16, 0x10	; 16
  b4:	44 43       	sbci	r20, 0x34	; 52
  b6:	53 52       	subi	r21, 0x23	; 35
  b8:	42 00       	.word	0x0042	; ????
  ba:	44 49       	sbci	r20, 0x94	; 148
  bc:	44 52       	subi	r20, 0x24	; 36
  be:	32 00       	.word	0x0032	; ????
  c0:	44 49       	sbci	r20, 0x94	; 148
  c2:	44 52       	subi	r20, 0x24	; 36
  c4:	31 00       	.word	0x0031	; ????
  c6:	44 49       	sbci	r20, 0x94	; 148
  c8:	44 52       	subi	r20, 0x24	; 36
  ca:	30 00       	.word	0x0030	; ????
  cc:	41 43       	sbci	r20, 0x31	; 49
  ce:	53 52       	subi	r21, 0x23	; 35
  d0:	42 00       	.word	0x0042	; ????
  d2:	41 43       	sbci	r20, 0x31	; 49
  d4:	53 52       	subi	r21, 0x23	; 35
  d6:	41 00       	.word	0x0041	; ????
  d8:	45 45       	sbci	r20, 0x55	; 85
  da:	41 52       	subi	r20, 0x21	; 33
  dc:	00 45       	sbci	r16, 0x50	; 80
  de:	45 44       	sbci	r20, 0x45	; 69
  e0:	52 00       	.word	0x0052	; ????
  e2:	45 45       	sbci	r20, 0x55	; 85
  e4:	43 52       	subi	r20, 0x23	; 35
  e6:	00 54       	subi	r16, 0x40	; 64
  e8:	49 4d       	sbci	r20, 0xD9	; 217
  ea:	53 4b       	sbci	r21, 0xB3	; 179
  ec:	00 54       	subi	r16, 0x40	; 64
  ee:	49 46       	sbci	r20, 0x69	; 105
  f0:	52 00       	.word	0x0052	; ????
  f2:	54 43       	sbci	r21, 0x34	; 52
  f4:	43 52       	subi	r20, 0x23	; 35
  f6:	31 41       	sbci	r19, 0x11	; 17
  f8:	00 54       	subi	r16, 0x40	; 64
  fa:	43 43       	sbci	r20, 0x33	; 51
  fc:	52 31       	cpi	r21, 0x12	; 18
  fe:	42 00       	.word	0x0042	; ????
 100:	54 43       	sbci	r21, 0x34	; 52
 102:	43 52       	subi	r20, 0x23	; 35
 104:	31 43       	sbci	r19, 0x31	; 49
 106:	00 54       	subi	r16, 0x40	; 64
 108:	43 4e       	sbci	r20, 0xE3	; 227
 10a:	54 31       	cpi	r21, 0x14	; 20
 10c:	00 4f       	sbci	r16, 0xF0	; 240
 10e:	43 52       	subi	r20, 0x23	; 35
 110:	31 41       	sbci	r19, 0x11	; 17
 112:	00 4f       	sbci	r16, 0xF0	; 240
 114:	43 52       	subi	r20, 0x23	; 35
 116:	31 42       	sbci	r19, 0x21	; 33
 118:	00 49       	sbci	r16, 0x90	; 144
 11a:	43 52       	subi	r20, 0x23	; 35
 11c:	31 00       	.word	0x0031	; ????
 11e:	47 54       	subi	r20, 0x47	; 71
 120:	43 43       	sbci	r20, 0x33	; 51
 122:	52 00       	.word	0x0052	; ????
 124:	54 49       	sbci	r21, 0x94	; 148
 126:	4d 53       	subi	r20, 0x3D	; 61
 128:	4b 00       	.word	0x004b	; ????
 12a:	54 49       	sbci	r21, 0x94	; 148
 12c:	46 52       	subi	r20, 0x26	; 38
 12e:	00 4f       	sbci	r16, 0xF0	; 240
 130:	43 52       	subi	r20, 0x23	; 35
 132:	30 42       	sbci	r19, 0x20	; 32
 134:	00 4f       	sbci	r16, 0xF0	; 240
 136:	43 52       	subi	r20, 0x23	; 35
 138:	30 41       	sbci	r19, 0x10	; 16
 13a:	00 54       	subi	r16, 0x40	; 64
 13c:	43 43       	sbci	r20, 0x33	; 51
 13e:	52 30       	cpi	r21, 0x02	; 2
 140:	41 00       	.word	0x0041	; ????
 142:	54 43       	sbci	r21, 0x34	; 52
 144:	4e 54       	subi	r20, 0x4E	; 78
 146:	30 00       	.word	0x0030	; ????
 148:	54 43       	sbci	r21, 0x34	; 52
 14a:	43 52       	subi	r20, 0x23	; 35
 14c:	30 42       	sbci	r19, 0x20	; 32
 14e:	00 47       	sbci	r16, 0x70	; 112
 150:	54 43       	sbci	r21, 0x34	; 52
 152:	43 52       	subi	r20, 0x23	; 35
 154:	00 50       	subi	r16, 0x00	; 0
 156:	43 4d       	sbci	r20, 0xD3	; 211
 158:	53 4b       	sbci	r21, 0xB3	; 179
 15a:	32 00       	.word	0x0032	; ????
 15c:	50 43       	sbci	r21, 0x30	; 48
 15e:	4d 53       	subi	r20, 0x3D	; 61
 160:	4b 31       	cpi	r20, 0x1B	; 27
 162:	00 50       	subi	r16, 0x00	; 0
 164:	43 4d       	sbci	r20, 0xD3	; 211
 166:	53 4b       	sbci	r21, 0xB3	; 179
 168:	30 00       	.word	0x0030	; ????
 16a:	47 49       	sbci	r20, 0x97	; 151
 16c:	46 52       	subi	r20, 0x26	; 38
 16e:	00 47       	sbci	r16, 0x70	; 112
 170:	49 4d       	sbci	r20, 0xD9	; 217
 172:	53 4b       	sbci	r21, 0xB3	; 179
 174:	00 50       	subi	r16, 0x00	; 0
 176:	52 52       	subi	r21, 0x22	; 34
 178:	00 43       	sbci	r16, 0x30	; 48
 17a:	43 50       	subi	r20, 0x03	; 3
 17c:	00 4f       	sbci	r16, 0xF0	; 240
 17e:	53 43       	sbci	r21, 0x33	; 51
 180:	43 41       	sbci	r20, 0x13	; 19
 182:	4c 30       	cpi	r20, 0x0C	; 12
 184:	00 4f       	sbci	r16, 0xF0	; 240
 186:	53 43       	sbci	r21, 0x33	; 51
 188:	43 41       	sbci	r20, 0x13	; 19
 18a:	4c 31       	cpi	r20, 0x1C	; 28
 18c:	00 4f       	sbci	r16, 0xF0	; 240
 18e:	53 43       	sbci	r21, 0x33	; 51
 190:	54 43       	sbci	r21, 0x34	; 52
 192:	41 4c       	sbci	r20, 0xC1	; 193
 194:	30 41       	sbci	r19, 0x10	; 16
 196:	00 4f       	sbci	r16, 0xF0	; 240
 198:	53 43       	sbci	r21, 0x33	; 51
 19a:	54 43       	sbci	r21, 0x34	; 52
 19c:	41 4c       	sbci	r20, 0xC1	; 193
 19e:	30 42       	sbci	r19, 0x20	; 32
 1a0:	00 43       	sbci	r16, 0x30	; 48
 1a2:	4c 4b       	sbci	r20, 0xBC	; 188
 1a4:	50 52       	subi	r21, 0x20	; 32
 1a6:	00 43       	sbci	r16, 0x30	; 48
 1a8:	4c 4b       	sbci	r20, 0xBC	; 188
 1aa:	53 52       	subi	r21, 0x23	; 35
 1ac:	00 53       	subi	r16, 0x30	; 48
 1ae:	52 45       	sbci	r21, 0x52	; 82
 1b0:	47 00       	.word	0x0047	; ????
 1b2:	53 50       	subi	r21, 0x03	; 3
 1b4:	00 4d       	sbci	r16, 0xD0	; 208
 1b6:	43 55       	subi	r20, 0x53	; 83
 1b8:	43 52       	subi	r20, 0x23	; 35
 1ba:	00 4d       	sbci	r16, 0xD0	; 208
 1bc:	43 55       	subi	r20, 0x53	; 83
 1be:	53 52       	subi	r21, 0x23	; 35
 1c0:	00 47       	sbci	r16, 0x70	; 112
 1c2:	50 49       	sbci	r21, 0x90	; 144
 1c4:	4f 52       	subi	r20, 0x2F	; 47
 1c6:	32 00       	.word	0x0032	; ????
 1c8:	47 50       	subi	r20, 0x07	; 7
 1ca:	49 4f       	sbci	r20, 0xF9	; 249
 1cc:	52 31       	cpi	r21, 0x12	; 18
 1ce:	00 47       	sbci	r16, 0x70	; 112
 1d0:	50 49       	sbci	r21, 0x90	; 144
 1d2:	4f 52       	subi	r20, 0x2F	; 47
 1d4:	30 00       	.word	0x0030	; ????
 1d6:	53 50       	subi	r21, 0x03	; 3
 1d8:	4d 43       	sbci	r20, 0x3D	; 61
 1da:	53 52       	subi	r21, 0x23	; 35
 1dc:	00 55       	subi	r16, 0x50	; 80
 1de:	53 49       	sbci	r21, 0x93	; 147
 1e0:	42 52       	subi	r20, 0x22	; 34
 1e2:	00 55       	subi	r16, 0x50	; 80
 1e4:	53 49       	sbci	r21, 0x93	; 147
 1e6:	44 52       	subi	r20, 0x24	; 36
 1e8:	00 55       	subi	r16, 0x50	; 80
 1ea:	53 49       	sbci	r21, 0x93	; 147
 1ec:	53 52       	subi	r21, 0x23	; 35
 1ee:	00 55       	subi	r16, 0x50	; 80
 1f0:	53 49       	sbci	r21, 0x93	; 147
 1f2:	43 52       	subi	r20, 0x23	; 35
 1f4:	00 55       	subi	r16, 0x50	; 80
 1f6:	44 52       	subi	r20, 0x24	; 36
 1f8:	30 00       	.word	0x0030	; ????
 1fa:	55 43       	sbci	r21, 0x35	; 53
 1fc:	53 52       	subi	r21, 0x23	; 35
 1fe:	30 41       	sbci	r19, 0x10	; 16
 200:	00 55       	subi	r16, 0x50	; 80
 202:	43 53       	subi	r20, 0x33	; 51
 204:	52 30       	cpi	r21, 0x02	; 2
 206:	42 00       	.word	0x0042	; ????
 208:	55 43       	sbci	r21, 0x35	; 53
 20a:	53 52       	subi	r21, 0x23	; 35
 20c:	30 43       	sbci	r19, 0x30	; 48
 20e:	00 55       	subi	r16, 0x50	; 80
 210:	43 53       	subi	r20, 0x33	; 51
 212:	52 30       	cpi	r21, 0x02	; 2
 214:	44 00       	.word	0x0044	; ????
 216:	55 42       	sbci	r21, 0x25	; 37
 218:	52 52       	subi	r21, 0x22	; 34
 21a:	30 00       	.word	0x0030	; ????
 21c:	55 44       	sbci	r21, 0x45	; 69
 21e:	52 31       	cpi	r21, 0x12	; 18
 220:	00 55       	subi	r16, 0x50	; 80
 222:	43 53       	subi	r20, 0x33	; 51
 224:	52 31       	cpi	r21, 0x12	; 18
 226:	41 00       	.word	0x0041	; ????
 228:	55 43       	sbci	r21, 0x35	; 53
 22a:	53 52       	subi	r21, 0x23	; 35
 22c:	31 42       	sbci	r19, 0x21	; 33
 22e:	00 55       	subi	r16, 0x50	; 80
 230:	43 53       	subi	r20, 0x33	; 51
 232:	52 31       	cpi	r21, 0x12	; 18
 234:	43 00       	.word	0x0043	; ????
 236:	55 43       	sbci	r21, 0x35	; 53
 238:	53 52       	subi	r21, 0x23	; 35
 23a:	31 44       	sbci	r19, 0x41	; 65
 23c:	00 55       	subi	r16, 0x50	; 80
 23e:	42 52       	subi	r20, 0x22	; 34
 240:	52 31       	cpi	r21, 0x12	; 18
 242:	00 57       	subi	r16, 0x70	; 112
 244:	44 54       	subi	r20, 0x44	; 68
 246:	43 53       	subi	r20, 0x33	; 51
 248:	52 00       	.word	0x0052	; ????
 24a:	45 45       	sbci	r20, 0x55	; 85
 24c:	5f 54       	subi	r21, 0x4F	; 79
 24e:	59 50       	subi	r21, 0x09	; 9
 250:	45 42       	sbci	r20, 0x25	; 37
 252:	4f 4f       	sbci	r20, 0xFF	; 255
 254:	4c 00       	.word	0x004c	; ????
 256:	72 65       	ori	r23, 0x52	; 82
 258:	73 75       	andi	r23, 0x53	; 83
 25a:	6c 74       	andi	r22, 0x4C	; 76
 25c:	00 45       	sbci	r16, 0x50	; 80
 25e:	45 5f       	subi	r20, 0xF5	; 245
 260:	41 53       	subi	r20, 0x31	; 49
 262:	53 45       	sbci	r21, 0x53	; 83
 264:	52 54       	subi	r21, 0x42	; 66
 266:	5f 46       	sbci	r21, 0x6F	; 111
 268:	49 4e       	sbci	r20, 0xE9	; 233
 26a:	00 45       	sbci	r16, 0x50	; 80
 26c:	45 5f       	subi	r20, 0xF5	; 245
 26e:	63 75       	andi	r22, 0x53	; 83
 270:	72 72       	andi	r23, 0x22	; 34
 272:	65 6e       	ori	r22, 0xE5	; 229
 274:	74 53       	subi	r23, 0x34	; 52
 276:	50 00       	.word	0x0050	; ????
 278:	47 4e       	sbci	r20, 0xE7	; 231
 27a:	55 20       	and	r5, r5
 27c:	43 38       	cpi	r20, 0x83	; 131
 27e:	39 20       	and	r3, r9
 280:	35 2e       	mov	r3, r21
 282:	34 2e       	mov	r3, r20
 284:	30 20       	and	r3, r0
 286:	2d 6d       	ori	r18, 0xDD	; 221
 288:	6e 2d       	mov	r22, r14
 28a:	66 6c       	ori	r22, 0xC6	; 198
 28c:	61 73       	andi	r22, 0x31	; 49
 28e:	68 3d       	cpi	r22, 0xD8	; 216
 290:	31 20       	and	r3, r1
 292:	2d 6d       	ori	r18, 0xDD	; 221
 294:	6e 6f       	ori	r22, 0xFE	; 254
 296:	2d 73       	andi	r18, 0x3D	; 61
 298:	6b 69       	ori	r22, 0x9B	; 155
 29a:	70 2d       	mov	r23, r0
 29c:	62 75       	andi	r22, 0x52	; 82
 29e:	67 20       	and	r6, r7
 2a0:	2d 6d       	ori	r18, 0xDD	; 221
 2a2:	72 65       	ori	r23, 0x52	; 82
 2a4:	6c 61       	ori	r22, 0x1C	; 28
 2a6:	78 20       	and	r7, r8
 2a8:	2d 6d       	ori	r18, 0xDD	; 221
 2aa:	6d 63       	ori	r22, 0x3D	; 61
 2ac:	75 3d       	cpi	r23, 0xD5	; 213
 2ae:	61 76       	andi	r22, 0x61	; 97
 2b0:	72 33       	cpi	r23, 0x32	; 50
 2b2:	35 20       	and	r3, r5
 2b4:	2d 67       	ori	r18, 0x7D	; 125
 2b6:	64 77       	andi	r22, 0x74	; 116
 2b8:	61 72       	andi	r22, 0x21	; 33
 2ba:	66 2d       	mov	r22, r6
 2bc:	32 20       	and	r3, r2
 2be:	2d 73       	andi	r18, 0x3D	; 61
 2c0:	74 64       	ori	r23, 0x44	; 68
 2c2:	3d 63       	ori	r19, 0x3D	; 61
 2c4:	39 30       	cpi	r19, 0x09	; 9
 2c6:	20 2d       	mov	r18, r0
 2c8:	66 64       	ori	r22, 0x46	; 70
 2ca:	61 74       	andi	r22, 0x41	; 65
 2cc:	61 2d       	mov	r22, r1
 2ce:	73 65       	ori	r23, 0x53	; 83
 2d0:	63 74       	andi	r22, 0x43	; 67
 2d2:	69 6f       	ori	r22, 0xF9	; 249
 2d4:	6e 73       	andi	r22, 0x3E	; 62
 2d6:	20 2d       	mov	r18, r0
 2d8:	66 66       	ori	r22, 0x66	; 102
 2da:	75 6e       	ori	r23, 0xE5	; 229
 2dc:	63 74       	andi	r22, 0x43	; 67
 2de:	69 6f       	ori	r22, 0xF9	; 249
 2e0:	6e 2d       	mov	r22, r14
 2e2:	73 65       	ori	r23, 0x53	; 83
 2e4:	63 74       	andi	r22, 0x43	; 67
 2e6:	69 6f       	ori	r22, 0xF9	; 249
 2e8:	6e 73       	andi	r22, 0x3E	; 62
 2ea:	20 2d       	mov	r18, r0
 2ec:	66 66       	ori	r22, 0x66	; 102
 2ee:	72 65       	ori	r23, 0x52	; 82
 2f0:	65 73       	andi	r22, 0x35	; 53
 2f2:	74 61       	ori	r23, 0x14	; 20
 2f4:	6e 64       	ori	r22, 0x4E	; 78
 2f6:	69 6e       	ori	r22, 0xE9	; 233
 2f8:	67 00       	.word	0x0067	; ????
 2fa:	63 6f       	ori	r22, 0xF3	; 243
 2fc:	75 6e       	ori	r23, 0xE5	; 229
 2fe:	74 65       	ori	r23, 0x54	; 84
 300:	72 00       	.word	0x0072	; ????
 302:	75 6e       	ori	r23, 0xE5	; 229
 304:	73 69       	ori	r23, 0x93	; 147
 306:	67 6e       	ori	r22, 0xE7	; 231
 308:	65 64       	ori	r22, 0x45	; 69
 30a:	20 63       	ori	r18, 0x30	; 48
 30c:	68 61       	ori	r22, 0x18	; 24
 30e:	72 00       	.word	0x0072	; ????
 310:	45 45       	sbci	r20, 0x55	; 85
 312:	5f 41       	sbci	r21, 0x1F	; 31
 314:	53 53       	subi	r21, 0x33	; 51
 316:	45 52       	subi	r20, 0x25	; 37
 318:	54 49       	sbci	r21, 0x94	; 148
 31a:	4f 4e       	sbci	r20, 0xEF	; 239
 31c:	53 00       	.word	0x0053	; ????
 31e:	45 45       	sbci	r20, 0x55	; 85
 320:	5f 53       	subi	r21, 0x3F	; 63
 322:	52 45       	sbci	r21, 0x52	; 82
 324:	47 00       	.word	0x0047	; ????
 326:	63 75       	andi	r22, 0x53	; 83
 328:	72 72       	andi	r23, 0x22	; 34
 32a:	5f 73       	andi	r21, 0x3F	; 63
 32c:	70 00       	.word	0x0070	; ????
 32e:	45 45       	sbci	r20, 0x55	; 85
 330:	5f 68       	ori	r21, 0x8F	; 143
 332:	61 6c       	ori	r22, 0xC1	; 193
 334:	5f 65       	ori	r21, 0x5F	; 95
 336:	6e 61       	ori	r22, 0x1E	; 30
 338:	62 6c       	ori	r22, 0xC2	; 194
 33a:	65 49       	sbci	r22, 0x95	; 149
 33c:	52 51       	subi	r21, 0x12	; 18
 33e:	00 45       	sbci	r16, 0x50	; 80
 340:	45 5f       	subi	r20, 0xF5	; 245
 342:	61 76       	andi	r22, 0x61	; 97
 344:	72 38       	cpi	r23, 0x82	; 130
 346:	5f 65       	ori	r21, 0x5F	; 95
 348:	6e 61       	ori	r22, 0x1E	; 30
 34a:	62 6c       	ori	r22, 0xC2	; 194
 34c:	65 49       	sbci	r22, 0x95	; 149
 34e:	52 51       	subi	r21, 0x12	; 18
 350:	00 45       	sbci	r16, 0x50	; 80
 352:	45 5f       	subi	r20, 0xF5	; 245
 354:	6d 63       	ori	r22, 0x3D	; 61
 356:	75 5f       	subi	r23, 0xF5	; 245
 358:	69 6e       	ori	r22, 0xE9	; 233
 35a:	69 74       	andi	r22, 0x49	; 73
 35c:	00 6d       	ori	r16, 0xD0	; 208
 35e:	61 69       	ori	r22, 0x91	; 145
 360:	6e 00       	.word	0x006e	; ????
 362:	45 45       	sbci	r20, 0x55	; 85
 364:	5f 41       	sbci	r21, 0x1F	; 31
 366:	53 53       	subi	r21, 0x33	; 51
 368:	45 52       	subi	r20, 0x25	; 37
 36a:	54 5f       	subi	r21, 0xF4	; 244
 36c:	44 49       	sbci	r20, 0x94	; 148
 36e:	4d 00       	.word	0x004d	; ????
 370:	45 45       	sbci	r20, 0x55	; 85
 372:	5f 55       	subi	r21, 0x5F	; 95
 374:	49 4e       	sbci	r20, 0xE9	; 233
 376:	54 31       	cpi	r21, 0x14	; 20
 378:	36 00       	.word	0x0036	; ????
 37a:	6c 6f       	ori	r22, 0xFC	; 252
 37c:	6e 67       	ori	r22, 0x7E	; 126
 37e:	20 6c       	ori	r18, 0xC0	; 192
 380:	6f 6e       	ori	r22, 0xEF	; 239
 382:	67 20       	and	r6, r7
 384:	75 6e       	ori	r23, 0xE5	; 229
 386:	73 69       	ori	r23, 0x93	; 147
 388:	67 6e       	ori	r22, 0xE7	; 231
 38a:	65 64       	ori	r22, 0x45	; 69
 38c:	20 69       	ori	r18, 0x90	; 144
 38e:	6e 74       	andi	r22, 0x4E	; 78
 390:	00 2f       	mov	r16, r16
 392:	68 6f       	ori	r22, 0xF8	; 248
 394:	6d 65       	ori	r22, 0x5D	; 93
 396:	2f 6a       	ori	r18, 0xAF	; 175
 398:	61 6c       	ori	r22, 0xC1	; 193
 39a:	6f 2f       	mov	r22, r31
 39c:	42 41       	sbci	r20, 0x12	; 18
 39e:	2f 6d       	ori	r18, 0xDF	; 223
 3a0:	69 6e       	ori	r22, 0xE9	; 233
 3a2:	64 73       	andi	r22, 0x34	; 52
 3a4:	74 6f       	ori	r23, 0xF4	; 244
 3a6:	72 6d       	ori	r23, 0xD2	; 210
 3a8:	73 2d       	mov	r23, r3
 3aa:	65 72       	andi	r22, 0x25	; 37
 3ac:	69 6b       	ori	r22, 0xB9	; 185
 3ae:	61 4f       	sbci	r22, 0xF1	; 241
 3b0:	53 32       	cpi	r21, 0x23	; 35
 3b2:	2f 65       	ori	r18, 0x5F	; 95
 3b4:	72 69       	ori	r23, 0x92	; 146
 3b6:	6b 61       	ori	r22, 0x1B	; 27
 3b8:	2f 70       	andi	r18, 0x0F	; 15
 3ba:	6f 72       	andi	r22, 0x2F	; 47
 3bc:	74 69       	ori	r23, 0x94	; 148
 3be:	6e 67       	ori	r22, 0x7E	; 126
 3c0:	5f 65       	ori	r21, 0x5F	; 95
 3c2:	78 61       	ori	r23, 0x18	; 24
 3c4:	6d 70       	andi	r22, 0x0D	; 13
 3c6:	6c 65       	ori	r22, 0x5C	; 92
 3c8:	73 5f       	subi	r23, 0xF3	; 243
 3ca:	31 36       	cpi	r19, 0x61	; 97
 3cc:	33 34       	cpi	r19, 0x43	; 67
 3ce:	2f 6d       	ori	r18, 0xDF	; 223
 3d0:	6f 6e       	ori	r22, 0xEF	; 239
 3d2:	6f 73       	andi	r22, 0x3F	; 63
 3d4:	74 61       	ori	r23, 0x14	; 20
 3d6:	63 6b       	ori	r22, 0xB3	; 179
 3d8:	2f 45       	sbci	r18, 0x5F	; 95
 3da:	45 74       	andi	r20, 0x45	; 69
 3dc:	65 73       	andi	r22, 0x35	; 53
 3de:	74 30       	cpi	r23, 0x04	; 4
 3e0:	2f 6d       	ori	r18, 0xDF	; 223
 3e2:	61 69       	ori	r22, 0x91	; 145
 3e4:	6e 2e       	mov	r6, r30
 3e6:	63 00       	.word	0x0063	; ????
 3e8:	45 45       	sbci	r20, 0x55	; 85
 3ea:	5f 49       	sbci	r21, 0x9F	; 159
 3ec:	4e 54       	subi	r20, 0x4E	; 78
 3ee:	38 00       	.word	0x0038	; ????
 3f0:	45 45       	sbci	r20, 0x55	; 85
 3f2:	5f 55       	subi	r21, 0x5F	; 95
 3f4:	49 4e       	sbci	r20, 0xE9	; 233
 3f6:	54 38       	cpi	r21, 0x84	; 132
 3f8:	00 46       	sbci	r16, 0x60	; 96
 3fa:	75 6e       	ori	r23, 0xE5	; 229
 3fc:	63 54       	subi	r22, 0x43	; 67
 3fe:	61 73       	andi	r22, 0x31	; 49
 400:	6b 31       	cpi	r22, 0x1B	; 27
 402:	00 73       	andi	r16, 0x30	; 48
 404:	69 7a       	andi	r22, 0xA9	; 169
 406:	65 74       	andi	r22, 0x45	; 69
 408:	79 70       	andi	r23, 0x09	; 9
 40a:	65 00       	.word	0x0065	; ????
 40c:	6c 6f       	ori	r22, 0xFC	; 252
 40e:	6e 67       	ori	r22, 0x7E	; 126
 410:	20 6c       	ori	r18, 0xC0	; 192
 412:	6f 6e       	ori	r22, 0xEF	; 239
 414:	67 20       	and	r6, r7
 416:	69 6e       	ori	r22, 0xE9	; 233
 418:	74 00       	.word	0x0074	; ????
 41a:	45 45       	sbci	r20, 0x55	; 85
 41c:	5f 55       	subi	r21, 0x5F	; 95
 41e:	52 45       	sbci	r21, 0x52	; 82
 420:	47 00       	.word	0x0047	; ????
 422:	75 69       	ori	r23, 0x95	; 149
 424:	6e 74       	andi	r22, 0x4E	; 78
 426:	31 36       	cpi	r19, 0x61	; 97
 428:	5f 74       	andi	r21, 0x4F	; 79
 42a:	00 45       	sbci	r16, 0x50	; 80
 42c:	45 5f       	subi	r20, 0xF5	; 245
 42e:	61 73       	andi	r22, 0x31	; 49
 430:	73 65       	ori	r23, 0x53	; 83
 432:	72 74       	andi	r23, 0x42	; 66
 434:	69 6f       	ori	r22, 0xF9	; 249
 436:	6e 73       	andi	r22, 0x3E	; 62
 438:	00 6d       	ori	r16, 0xD0	; 208
 43a:	61 69       	ori	r22, 0x91	; 145
 43c:	6e 5f       	subi	r22, 0xFE	; 254
 43e:	73 70       	andi	r23, 0x03	; 3
 440:	00 45       	sbci	r16, 0x50	; 80
 442:	45 5f       	subi	r20, 0xF5	; 245
 444:	41 53       	subi	r20, 0x31	; 49
 446:	53 45       	sbci	r21, 0x53	; 83
 448:	52 54       	subi	r21, 0x42	; 66
 44a:	5f 49       	sbci	r21, 0x9F	; 159
 44c:	4e 49       	sbci	r20, 0x9E	; 158
 44e:	54 00       	.word	0x0054	; ????
 450:	2f 68       	ori	r18, 0x8F	; 143
 452:	6f 6d       	ori	r22, 0xDF	; 223
 454:	65 2f       	mov	r22, r21
 456:	6a 61       	ori	r22, 0x1A	; 26
 458:	6c 6f       	ori	r22, 0xFC	; 252
 45a:	2f 42       	sbci	r18, 0x2F	; 47
 45c:	41 2f       	mov	r20, r17
 45e:	6d 69       	ori	r22, 0x9D	; 157
 460:	6e 64       	ori	r22, 0x4E	; 78
 462:	73 74       	andi	r23, 0x43	; 67
 464:	6f 72       	andi	r22, 0x2F	; 47
 466:	6d 73       	andi	r22, 0x3D	; 61
 468:	2d 65       	ori	r18, 0x5D	; 93
 46a:	72 69       	ori	r23, 0x92	; 146
 46c:	6b 61       	ori	r22, 0x1B	; 27
 46e:	4f 53       	subi	r20, 0x3F	; 63
 470:	32 2f       	mov	r19, r18
 472:	65 72       	andi	r22, 0x25	; 37
 474:	69 6b       	ori	r22, 0xB9	; 185
 476:	61 2f       	mov	r22, r17
 478:	65 65       	ori	r22, 0x55	; 85
 47a:	2f 70       	andi	r18, 0x0F	; 15
 47c:	6b 67       	ori	r22, 0x7B	; 123
 47e:	2f 74       	andi	r18, 0x4F	; 79
 480:	65 73       	andi	r22, 0x35	; 53
 482:	74 2f       	mov	r23, r20
 484:	61 73       	andi	r22, 0x31	; 49
 486:	73 65       	ori	r23, 0x53	; 83
 488:	72 74       	andi	r23, 0x42	; 66
 48a:	2f 73       	andi	r18, 0x3F	; 63
 48c:	72 63       	ori	r23, 0x32	; 50
 48e:	2f 65       	ori	r18, 0x5F	; 95
 490:	65 5f       	subi	r22, 0xF5	; 245
 492:	61 73       	andi	r22, 0x31	; 49
 494:	73 65       	ori	r23, 0x53	; 83
 496:	72 74       	andi	r23, 0x42	; 66
 498:	2e 63       	ori	r18, 0x3E	; 62
 49a:	00 70       	andi	r16, 0x00	; 0
 49c:	72 65       	ori	r23, 0x52	; 82
 49e:	76 31       	cpi	r23, 0x16	; 22
 4a0:	00 70       	andi	r16, 0x00	; 0
 4a2:	72 65       	ori	r23, 0x52	; 82
 4a4:	76 32       	cpi	r23, 0x26	; 38
 4a6:	00 45       	sbci	r16, 0x50	; 80
 4a8:	45 5f       	subi	r20, 0xF5	; 245
 4aa:	61 73       	andi	r22, 0x31	; 49
 4ac:	73 65       	ori	r23, 0x53	; 83
 4ae:	72 74       	andi	r23, 0x42	; 66
 4b0:	00 62       	ori	r16, 0x20	; 32
 4b2:	65 67       	ori	r22, 0x75	; 117
 4b4:	69 6e       	ori	r22, 0xE9	; 233
 4b6:	00 45       	sbci	r16, 0x50	; 80
 4b8:	45 5f       	subi	r20, 0xF5	; 245
 4ba:	61 73       	andi	r22, 0x31	; 49
 4bc:	73 65       	ori	r23, 0x53	; 83
 4be:	72 74       	andi	r23, 0x42	; 66
 4c0:	5f 6c       	ori	r21, 0xCF	; 207
 4c2:	61 73       	andi	r22, 0x31	; 49
 4c4:	74 00       	.word	0x0074	; ????
 4c6:	74 65       	ori	r23, 0x54	; 84
 4c8:	73 74       	andi	r23, 0x43	; 67
 4ca:	00 45       	sbci	r16, 0x50	; 80
 4cc:	45 5f       	subi	r20, 0xF5	; 245
 4ce:	61 73       	andi	r22, 0x31	; 49
 4d0:	73 65       	ori	r23, 0x53	; 83
 4d2:	72 74       	andi	r23, 0x42	; 66
 4d4:	5f 6f       	ori	r21, 0xFF	; 255
 4d6:	72 00       	.word	0x0072	; ????
 4d8:	45 45       	sbci	r20, 0x55	; 85
 4da:	5f 61       	ori	r21, 0x1F	; 31
 4dc:	73 73       	andi	r23, 0x33	; 51
 4de:	65 72       	andi	r22, 0x25	; 37
 4e0:	74 5f       	subi	r23, 0xF4	; 244
 4e2:	61 6e       	ori	r22, 0xE1	; 225
 4e4:	64 00       	.word	0x0064	; ????
 4e6:	45 45       	sbci	r20, 0x55	; 85
 4e8:	5f 61       	ori	r21, 0x1F	; 31
 4ea:	73 73       	andi	r23, 0x33	; 51
 4ec:	65 72       	andi	r22, 0x25	; 37
 4ee:	74 5f       	subi	r23, 0xF4	; 244
 4f0:	72 61       	ori	r23, 0x12	; 18
 4f2:	6e 67       	ori	r22, 0x7E	; 126
 4f4:	65 00       	.word	0x0065	; ????
 4f6:	70 72       	andi	r23, 0x20	; 32
 4f8:	65 76       	andi	r22, 0x65	; 101
 4fa:	00 5f       	subi	r16, 0xF0	; 240
 4fc:	5f 76       	andi	r21, 0x6F	; 111
 4fe:	65 63       	ori	r22, 0x35	; 53
 500:	74 6f       	ori	r23, 0xF4	; 244
 502:	72 5f       	subi	r23, 0xF2	; 242
 504:	64 65       	ori	r22, 0x54	; 84
 506:	66 61       	ori	r22, 0x16	; 22
 508:	75 6c       	ori	r23, 0xC5	; 197
 50a:	74 00       	.word	0x0074	; ????
 50c:	45 45       	sbci	r20, 0x55	; 85
 50e:	5f 68       	ori	r21, 0x8F	; 143
 510:	61 6c       	ori	r22, 0xC1	; 193
 512:	5f 65       	ori	r21, 0x5F	; 95
 514:	6e 64       	ori	r22, 0x4E	; 78
 516:	5f 6e       	ori	r21, 0xEF	; 239
 518:	65 73       	andi	r22, 0x35	; 53
 51a:	74 65       	ori	r23, 0x54	; 84
 51c:	64 5f       	subi	r22, 0xF4	; 244
 51e:	70 72       	andi	r23, 0x20	; 32
 520:	69 6d       	ori	r22, 0xD9	; 217
 522:	69 74       	andi	r22, 0x49	; 73
 524:	69 76       	andi	r22, 0x69	; 105
 526:	65 00       	.word	0x0065	; ????
 528:	45 45       	sbci	r20, 0x55	; 85
 52a:	5f 74       	andi	r21, 0x4F	; 79
 52c:	68 5f       	subi	r22, 0xF8	; 248
 52e:	6e 65       	ori	r22, 0x5E	; 94
 530:	78 74       	andi	r23, 0x48	; 72
 532:	00 45       	sbci	r16, 0x50	; 80
 534:	45 5f       	subi	r20, 0xF5	; 245
 536:	68 61       	ori	r22, 0x18	; 24
 538:	6c 5f       	subi	r22, 0xFC	; 252
 53a:	73 75       	andi	r23, 0x53	; 83
 53c:	73 70       	andi	r23, 0x03	; 3
 53e:	65 6e       	ori	r22, 0xE5	; 229
 540:	64 49       	sbci	r22, 0x94	; 148
 542:	52 51       	subi	r21, 0x12	; 18
 544:	00 45       	sbci	r16, 0x50	; 80
 546:	45 5f       	subi	r20, 0xF5	; 245
 548:	54 49       	sbci	r21, 0x94	; 148
 54a:	44 00       	.word	0x0044	; ????
 54c:	45 45       	sbci	r20, 0x55	; 85
 54e:	5f 68       	ori	r21, 0x8F	; 143
 550:	61 6c       	ori	r22, 0xC1	; 193
 552:	5f 62       	ori	r21, 0x2F	; 47
 554:	65 67       	ori	r22, 0x75	; 117
 556:	69 6e       	ori	r22, 0xE9	; 233
 558:	5f 6e       	ori	r21, 0xEF	; 239
 55a:	65 73       	andi	r22, 0x35	; 53
 55c:	74 65       	ori	r23, 0x54	; 84
 55e:	64 5f       	subi	r22, 0xF4	; 244
 560:	70 72       	andi	r23, 0x20	; 32
 562:	69 6d       	ori	r22, 0xD9	; 217
 564:	69 74       	andi	r22, 0x49	; 73
 566:	69 76       	andi	r22, 0x69	; 105
 568:	65 00       	.word	0x0065	; ????
 56a:	45 45       	sbci	r20, 0x55	; 85
 56c:	5f 61       	ori	r21, 0x1F	; 31
 56e:	74 74       	andi	r23, 0x44	; 68
 570:	69 6e       	ori	r22, 0xE9	; 233
 572:	79 5f       	subi	r23, 0xF9	; 249
 574:	69 6e       	ori	r22, 0xE9	; 233
 576:	74 76       	andi	r23, 0x64	; 100
 578:	65 63       	ori	r22, 0x35	; 53
 57a:	74 00       	.word	0x0074	; ????
 57c:	2f 68       	ori	r18, 0x8F	; 143
 57e:	6f 6d       	ori	r22, 0xDF	; 223
 580:	65 2f       	mov	r22, r21
 582:	6a 61       	ori	r22, 0x1A	; 26
 584:	6c 6f       	ori	r22, 0xFC	; 252
 586:	2f 42       	sbci	r18, 0x2F	; 47
 588:	41 2f       	mov	r20, r17
 58a:	6d 69       	ori	r22, 0x9D	; 157
 58c:	6e 64       	ori	r22, 0x4E	; 78
 58e:	73 74       	andi	r23, 0x43	; 67
 590:	6f 72       	andi	r22, 0x2F	; 47
 592:	6d 73       	andi	r22, 0x3D	; 61
 594:	2d 65       	ori	r18, 0x5D	; 93
 596:	72 69       	ori	r23, 0x92	; 146
 598:	6b 61       	ori	r22, 0x1B	; 27
 59a:	4f 53       	subi	r20, 0x3F	; 63
 59c:	32 2f       	mov	r19, r18
 59e:	65 72       	andi	r22, 0x25	; 37
 5a0:	69 6b       	ori	r22, 0xB9	; 185
 5a2:	61 2f       	mov	r22, r17
 5a4:	65 65       	ori	r22, 0x55	; 85
 5a6:	2f 70       	andi	r18, 0x0F	; 15
 5a8:	6b 67       	ori	r22, 0x7B	; 123
 5aa:	2f 6d       	ori	r18, 0xDF	; 223
 5ac:	63 75       	andi	r22, 0x53	; 83
 5ae:	2f 61       	ori	r18, 0x1F	; 31
 5b0:	74 6d       	ori	r23, 0xD4	; 212
 5b2:	65 6c       	ori	r22, 0xC5	; 197
 5b4:	5f 61       	ori	r21, 0x1F	; 31
 5b6:	74 74       	andi	r23, 0x44	; 68
 5b8:	69 6e       	ori	r22, 0xE9	; 233
 5ba:	79 2f       	mov	r23, r25
 5bc:	73 72       	andi	r23, 0x23	; 35
 5be:	63 2f       	mov	r22, r19
 5c0:	65 65       	ori	r22, 0x55	; 85
 5c2:	5f 69       	ori	r21, 0x9F	; 159
 5c4:	6e 74       	andi	r22, 0x4E	; 78
 5c6:	76 65       	ori	r23, 0x56	; 86
 5c8:	63 74       	andi	r22, 0x43	; 67
 5ca:	2e 63       	ori	r18, 0x3E	; 62
 5cc:	00 45       	sbci	r16, 0x50	; 80
 5ce:	45 5f       	subi	r20, 0xF5	; 245
 5d0:	61 76       	andi	r22, 0x61	; 97
 5d2:	72 38       	cpi	r23, 0x82	; 130
 5d4:	5f 64       	ori	r21, 0x4F	; 79
 5d6:	69 73       	andi	r22, 0x39	; 57
 5d8:	61 62       	ori	r22, 0x21	; 33
 5da:	6c 65       	ori	r22, 0x5C	; 92
 5dc:	49 52       	subi	r20, 0x29	; 41
 5de:	51 00       	.word	0x0051	; ????
 5e0:	45 45       	sbci	r20, 0x55	; 85
 5e2:	5f 68       	ori	r21, 0x8F	; 143
 5e4:	61 6c       	ori	r22, 0xC1	; 193
 5e6:	5f 72       	andi	r21, 0x2F	; 47
 5e8:	65 61       	ori	r22, 0x15	; 21
 5ea:	64 79       	andi	r22, 0x94	; 148
 5ec:	32 73       	andi	r19, 0x32	; 50
 5ee:	74 61       	ori	r23, 0x14	; 20
 5f0:	63 6b       	ori	r22, 0xB3	; 179
 5f2:	65 64       	ori	r22, 0x45	; 69
 5f4:	00 45       	sbci	r16, 0x50	; 80
 5f6:	45 5f       	subi	r20, 0xF5	; 245
 5f8:	61 76       	andi	r22, 0x61	; 97
 5fa:	72 38       	cpi	r23, 0x82	; 130
 5fc:	5f 73       	andi	r21, 0x3F	; 63
 5fe:	75 73       	andi	r23, 0x35	; 53
 600:	70 65       	ori	r23, 0x50	; 80
 602:	6e 64       	ori	r22, 0x4E	; 78
 604:	49 52       	subi	r20, 0x29	; 41
 606:	51 00       	.word	0x0051	; ????
 608:	45 45       	sbci	r20, 0x55	; 85
 60a:	5f 73       	andi	r21, 0x3F	; 63
 60c:	74 64       	ori	r23, 0x44	; 68
 60e:	5f 65       	ori	r21, 0x5F	; 95
 610:	6e 64       	ori	r22, 0x4E	; 78
 612:	63 79       	andi	r22, 0x93	; 147
 614:	63 6c       	ori	r22, 0xC3	; 195
 616:	65 5f       	subi	r22, 0xF5	; 245
 618:	6e 65       	ori	r22, 0x5E	; 94
 61a:	78 74       	andi	r23, 0x48	; 72
 61c:	5f 74       	andi	r21, 0x4F	; 79
 61e:	69 64       	ori	r22, 0x49	; 73
 620:	00 45       	sbci	r16, 0x50	; 80
 622:	45 5f       	subi	r20, 0xF5	; 245
 624:	46 52       	subi	r20, 0x26	; 38
 626:	45 47       	sbci	r20, 0x75	; 117
 628:	00 75       	andi	r16, 0x50	; 80
 62a:	69 6e       	ori	r22, 0xE9	; 233
 62c:	74 38       	cpi	r23, 0x84	; 132
 62e:	5f 74       	andi	r21, 0x4F	; 79
 630:	00 45       	sbci	r16, 0x50	; 80
 632:	45 5f       	subi	r20, 0xF5	; 245
 634:	72 71       	andi	r23, 0x12	; 18
 636:	66 69       	ori	r22, 0x96	; 150
 638:	72 73       	andi	r23, 0x32	; 50
 63a:	74 00       	.word	0x0074	; ????
 63c:	45 45       	sbci	r20, 0x55	; 85
 63e:	5f 49       	sbci	r21, 0x9F	; 159
 640:	52 51       	subi	r21, 0x12	; 18
 642:	5f 6e       	ori	r21, 0xEF	; 239
 644:	65 73       	andi	r22, 0x35	; 53
 646:	74 69       	ori	r23, 0x94	; 148
 648:	6e 67       	ori	r22, 0x7E	; 126
 64a:	5f 6c       	ori	r21, 0xCF	; 207
 64c:	65 76       	andi	r22, 0x65	; 101
 64e:	65 6c       	ori	r22, 0xC5	; 197
 650:	00 45       	sbci	r16, 0x50	; 80
 652:	45 5f       	subi	r20, 0xF5	; 245
 654:	73 74       	andi	r23, 0x43	; 67
 656:	6b 66       	ori	r22, 0x6B	; 107
 658:	69 72       	andi	r22, 0x29	; 41
 65a:	73 74       	andi	r23, 0x43	; 67
 65c:	00 45       	sbci	r16, 0x50	; 80
 65e:	45 5f       	subi	r20, 0xF5	; 245
 660:	73 74       	andi	r23, 0x43	; 67
 662:	64 5f       	subi	r22, 0xF4	; 244
 664:	63 68       	ori	r22, 0x83	; 131
 666:	61 6e       	ori	r22, 0xE1	; 225
 668:	67 65       	ori	r22, 0x57	; 87
 66a:	5f 63       	ori	r21, 0x3F	; 63
 66c:	6f 6e       	ori	r22, 0xEF	; 239
 66e:	74 65       	ori	r23, 0x54	; 84
 670:	78 74       	andi	r23, 0x48	; 72
 672:	00 66       	ori	r16, 0x60	; 96
 674:	6c 61       	ori	r22, 0x1C	; 28
 676:	67 73       	andi	r22, 0x37	; 55
 678:	00 45       	sbci	r16, 0x50	; 80
 67a:	45 5f       	subi	r20, 0xF5	; 245
 67c:	68 61       	ori	r22, 0x18	; 24
 67e:	6c 5f       	subi	r22, 0xFC	; 252
 680:	72 65       	ori	r23, 0x52	; 82
 682:	73 75       	andi	r23, 0x53	; 83
 684:	6d 65       	ori	r22, 0x5D	; 93
 686:	49 52       	subi	r20, 0x29	; 41
 688:	51 00       	.word	0x0051	; ????
 68a:	45 45       	sbci	r20, 0x55	; 85
 68c:	5f 61       	ori	r21, 0x1F	; 31
 68e:	76 72       	andi	r23, 0x26	; 38
 690:	38 5f       	subi	r19, 0xF8	; 248
 692:	72 65       	ori	r23, 0x52	; 82
 694:	73 75       	andi	r23, 0x53	; 83
 696:	6d 65       	ori	r22, 0x5D	; 93
 698:	49 52       	subi	r20, 0x29	; 41
 69a:	51 00       	.word	0x0051	; ????

Disassembly of section .debug_loc:

00000000 <.debug_loc>:
	...
   8:	03 00       	.word	0x0003	; ????
   a:	92 20       	and	r9, r2
   c:	02 00       	.word	0x0002	; ????
   e:	00 00       	nop
  10:	00 00       	nop
  12:	00 00       	nop
  14:	00 03       	mulsu	r16, r16
  16:	00 92 20 03 	sts	0x0320, r0	; 0x800320 <__bss_end+0x219>
	...
  22:	03 00       	.word	0x0003	; ????
  24:	92 20       	and	r9, r2
  26:	04 00       	.word	0x0004	; ????
  28:	00 00       	nop
  2a:	00 00       	nop
  2c:	00 00       	nop
  2e:	00 02       	muls	r16, r16
  30:	00 8c       	ldd	r0, Z+24	; 0x18
  32:	04 00       	.word	0x0004	; ????
  34:	00 00       	nop
  36:	00 00       	nop
  38:	00 00       	nop
  3a:	00 a8       	ldd	r0, Z+48	; 0x30
  3c:	00 00       	nop
  3e:	00 aa       	std	Z+48, r0	; 0x30
  40:	00 00       	nop
  42:	00 03       	mulsu	r16, r16
  44:	00 92 20 02 	sts	0x0220, r0	; 0x800220 <__bss_end+0x119>
  48:	aa 00       	.word	0x00aa	; ????
  4a:	00 00       	nop
  4c:	ac 00       	.word	0x00ac	; ????
  4e:	00 00       	nop
  50:	03 00       	.word	0x0003	; ????
  52:	92 20       	and	r9, r2
  54:	03 ac       	ldd	r0, Z+59	; 0x3b
  56:	00 00       	nop
  58:	00 b0       	in	r0, 0x00	; 0
  5a:	00 00       	nop
  5c:	00 03       	mulsu	r16, r16
  5e:	00 92 20 04 	sts	0x0420, r0	; 0x800420 <__bss_end+0x319>
  62:	b0 00       	.word	0x00b0	; ????
  64:	00 00       	nop
  66:	c0 00       	.word	0x00c0	; ????
  68:	00 00       	nop
  6a:	02 00       	.word	0x0002	; ????
  6c:	8c 04       	cpc	r8, r12
	...
  7e:	03 00       	.word	0x0003	; ????
  80:	92 20       	and	r9, r2
  82:	02 00       	.word	0x0002	; ????
  84:	00 00       	nop
  86:	00 00       	nop
  88:	00 00       	nop
  8a:	00 03       	mulsu	r16, r16
  8c:	00 92 20 03 	sts	0x0320, r0	; 0x800320 <__bss_end+0x219>
	...
  98:	03 00       	.word	0x0003	; ????
  9a:	92 20       	and	r9, r2
  9c:	04 00       	.word	0x0004	; ????
  9e:	00 00       	nop
  a0:	00 00       	nop
  a2:	00 00       	nop
  a4:	00 02       	muls	r16, r16
  a6:	00 8c       	ldd	r0, Z+24	; 0x18
  a8:	04 00       	.word	0x0004	; ????
  aa:	00 00       	nop
  ac:	00 00       	nop
  ae:	00 00       	nop
  b0:	00 c0       	rjmp	.+0      	; 0xb2 <EE_currentSP+0xa>
  b2:	00 00       	nop
  b4:	00 c2       	rjmp	.+1024   	; 0x4b6 <__LOCK_REGION_LENGTH__+0xb6>
  b6:	00 00       	nop
  b8:	00 03       	mulsu	r16, r16
  ba:	00 92 20 02 	sts	0x0220, r0	; 0x800220 <__bss_end+0x119>
  be:	c2 00       	.word	0x00c2	; ????
  c0:	00 00       	nop
  c2:	c4 00       	.word	0x00c4	; ????
  c4:	00 00       	nop
  c6:	03 00       	.word	0x0003	; ????
  c8:	92 20       	and	r9, r2
  ca:	03 c4       	rjmp	.+2054   	; 0x8d2 <__stack+0x3d3>
  cc:	00 00       	nop
  ce:	00 c6       	rjmp	.+3072   	; 0xcd0 <__stack+0x7d1>
  d0:	00 00       	nop
  d2:	00 03       	mulsu	r16, r16
  d4:	00 92 20 04 	sts	0x0420, r0	; 0x800420 <__bss_end+0x319>
  d8:	c6 00       	.word	0x00c6	; ????
  da:	00 00       	nop
  dc:	ca 00       	.word	0x00ca	; ????
  de:	00 00       	nop
  e0:	03 00       	.word	0x0003	; ????
  e2:	92 20       	and	r9, r2
  e4:	06 ca       	rjmp	.-3060   	; 0xfffff4f2 <__eeprom_end+0xff7ef4f2>
  e6:	00 00       	nop
  e8:	00 2e       	mov	r0, r16
  ea:	01 00       	.word	0x0001	; ????
  ec:	00 02       	muls	r16, r16
  ee:	00 8c       	ldd	r0, Z+24	; 0x18
  f0:	06 00       	.word	0x0006	; ????
	...
  fe:	00 00       	nop
 100:	00 03       	mulsu	r16, r16
 102:	00 92 20 02 	sts	0x0220, r0	; 0x800220 <__bss_end+0x119>
	...
 10e:	03 00       	.word	0x0003	; ????
 110:	92 20       	and	r9, r2
 112:	03 00       	.word	0x0003	; ????
 114:	00 00       	nop
 116:	00 00       	nop
 118:	00 00       	nop
 11a:	00 03       	mulsu	r16, r16
 11c:	00 92 20 04 	sts	0x0420, r0	; 0x800420 <__bss_end+0x319>
	...
 128:	02 00       	.word	0x0002	; ????
 12a:	8c 04       	cpc	r8, r12
	...
 134:	2e 01       	movw	r4, r28
 136:	00 00       	nop
 138:	30 01       	movw	r6, r0
 13a:	00 00       	nop
 13c:	03 00       	.word	0x0003	; ????
 13e:	92 20       	and	r9, r2
 140:	02 30       	cpi	r16, 0x02	; 2
 142:	01 00       	.word	0x0001	; ????
 144:	00 32       	cpi	r16, 0x20	; 32
 146:	01 00       	.word	0x0001	; ????
 148:	00 03       	mulsu	r16, r16
 14a:	00 92 20 03 	sts	0x0320, r0	; 0x800320 <__bss_end+0x219>
 14e:	32 01       	movw	r6, r4
 150:	00 00       	nop
 152:	36 01       	movw	r6, r12
 154:	00 00       	nop
 156:	03 00       	.word	0x0003	; ????
 158:	92 20       	and	r9, r2
 15a:	04 36       	cpi	r16, 0x64	; 100
 15c:	01 00       	.word	0x0001	; ????
 15e:	00 3a       	cpi	r16, 0xA0	; 160
 160:	01 00       	.word	0x0001	; ????
 162:	00 03       	mulsu	r16, r16
 164:	00 92 20 08 	sts	0x0820, r0	; 0x800820 <__bss_end+0x719>
 168:	3a 01       	movw	r6, r20
 16a:	00 00       	nop
 16c:	f2 01       	movw	r30, r4
 16e:	00 00       	nop
 170:	02 00       	.word	0x0002	; ????
 172:	8c 08       	sbc	r8, r12
	...
 184:	03 00       	.word	0x0003	; ????
 186:	92 20       	and	r9, r2
 188:	02 00       	.word	0x0002	; ????
 18a:	00 00       	nop
 18c:	00 00       	nop
 18e:	00 00       	nop
 190:	00 03       	mulsu	r16, r16
 192:	00 92 20 03 	sts	0x0320, r0	; 0x800320 <__bss_end+0x219>
	...
 19e:	03 00       	.word	0x0003	; ????
 1a0:	92 20       	and	r9, r2
 1a2:	04 00       	.word	0x0004	; ????
 1a4:	00 00       	nop
 1a6:	00 00       	nop
 1a8:	00 00       	nop
 1aa:	00 03       	mulsu	r16, r16
 1ac:	00 92 20 07 	sts	0x0720, r0	; 0x800720 <__bss_end+0x619>
	...
 1b8:	02 00       	.word	0x0002	; ????
 1ba:	8c 07       	cpc	r24, r28
	...
 1cc:	03 00       	.word	0x0003	; ????
 1ce:	92 20       	and	r9, r2
 1d0:	02 00       	.word	0x0002	; ????
 1d2:	00 00       	nop
 1d4:	00 00       	nop
 1d6:	00 00       	nop
 1d8:	00 03       	mulsu	r16, r16
 1da:	00 92 20 03 	sts	0x0320, r0	; 0x800320 <__bss_end+0x219>
	...
 1e6:	03 00       	.word	0x0003	; ????
 1e8:	92 20       	and	r9, r2
 1ea:	04 00       	.word	0x0004	; ????
 1ec:	00 00       	nop
 1ee:	00 00       	nop
 1f0:	00 00       	nop
 1f2:	00 03       	mulsu	r16, r16
 1f4:	00 92 20 07 	sts	0x0720, r0	; 0x800720 <__bss_end+0x619>
	...
 200:	02 00       	.word	0x0002	; ????
 202:	8c 07       	cpc	r24, r28
	...
 20c:	f2 01       	movw	r30, r4
 20e:	00 00       	nop
 210:	f4 01       	movw	r30, r8
 212:	00 00       	nop
 214:	03 00       	.word	0x0003	; ????
 216:	92 20       	and	r9, r2
 218:	02 f4       	brpl	.+0      	; 0x21a <EE_assert_range+0x28>
 21a:	01 00       	.word	0x0001	; ????
 21c:	00 f6       	brcc	.-128    	; 0x19e <EE_assert+0x70>
 21e:	01 00       	.word	0x0001	; ????
 220:	00 03       	mulsu	r16, r16
 222:	00 92 20 03 	sts	0x0320, r0	; 0x800320 <__bss_end+0x219>
 226:	f6 01       	movw	r30, r12
 228:	00 00       	nop
 22a:	fa 01       	movw	r30, r20
 22c:	00 00       	nop
 22e:	03 00       	.word	0x0003	; ????
 230:	92 20       	and	r9, r2
 232:	04 fa       	bst	r0, 4
 234:	01 00       	.word	0x0001	; ????
 236:	00 fe       	sbrs	r0, 0
 238:	01 00       	.word	0x0001	; ????
 23a:	00 03       	mulsu	r16, r16
 23c:	00 92 20 08 	sts	0x0820, r0	; 0x800820 <__bss_end+0x719>
 240:	fe 01       	movw	r30, r28
 242:	00 00       	nop
 244:	64 02       	muls	r22, r20
 246:	00 00       	nop
 248:	02 00       	.word	0x0002	; ????
 24a:	8c 08       	sbc	r8, r12
	...
 254:	64 02       	muls	r22, r20
 256:	00 00       	nop
 258:	66 02       	muls	r22, r22
 25a:	00 00       	nop
 25c:	03 00       	.word	0x0003	; ????
 25e:	92 20       	and	r9, r2
 260:	02 66       	ori	r16, 0x62	; 98
 262:	02 00       	.word	0x0002	; ????
 264:	00 68       	ori	r16, 0x80	; 128
 266:	02 00       	.word	0x0002	; ????
 268:	00 03       	mulsu	r16, r16
 26a:	00 92 20 03 	sts	0x0320, r0	; 0x800320 <__bss_end+0x219>
 26e:	68 02       	muls	r22, r24
 270:	00 00       	nop
 272:	6c 02       	muls	r22, r28
 274:	00 00       	nop
 276:	03 00       	.word	0x0003	; ????
 278:	92 20       	and	r9, r2
 27a:	04 6c       	ori	r16, 0xC4	; 196
 27c:	02 00       	.word	0x0002	; ????
 27e:	00 76       	andi	r16, 0x60	; 96
 280:	02 00       	.word	0x0002	; ????
 282:	00 02       	muls	r16, r16
 284:	00 8c       	ldd	r0, Z+24	; 0x18
 286:	04 00       	.word	0x0004	; ????
	...
 294:	00 00       	nop
 296:	00 03       	mulsu	r16, r16
 298:	00 92 20 02 	sts	0x0220, r0	; 0x800220 <__bss_end+0x119>
	...
 2a4:	03 00       	.word	0x0003	; ????
 2a6:	92 20       	and	r9, r2
 2a8:	03 00       	.word	0x0003	; ????
 2aa:	00 00       	nop
 2ac:	00 00       	nop
 2ae:	00 00       	nop
 2b0:	00 03       	mulsu	r16, r16
 2b2:	00 92 20 04 	sts	0x0420, r0	; 0x800420 <__bss_end+0x319>
	...
 2be:	03 00       	.word	0x0003	; ????
 2c0:	92 20       	and	r9, r2
 2c2:	05 00       	.word	0x0005	; ????
 2c4:	00 00       	nop
 2c6:	00 00       	nop
 2c8:	00 00       	nop
 2ca:	00 02       	muls	r16, r16
 2cc:	00 8c       	ldd	r0, Z+24	; 0x18
 2ce:	05 00       	.word	0x0005	; ????
	...
 2dc:	00 00       	nop
 2de:	00 03       	mulsu	r16, r16
 2e0:	00 92 20 02 	sts	0x0220, r0	; 0x800220 <__bss_end+0x119>
	...
 2ec:	03 00       	.word	0x0003	; ????
 2ee:	92 20       	and	r9, r2
 2f0:	03 00       	.word	0x0003	; ????
 2f2:	00 00       	nop
 2f4:	00 00       	nop
 2f6:	00 00       	nop
 2f8:	00 03       	mulsu	r16, r16
 2fa:	00 92 20 04 	sts	0x0420, r0	; 0x800420 <__bss_end+0x319>
	...
 306:	03 00       	.word	0x0003	; ????
 308:	92 20       	and	r9, r2
 30a:	07 00       	.word	0x0007	; ????
 30c:	00 00       	nop
 30e:	00 00       	nop
 310:	00 00       	nop
 312:	00 02       	muls	r16, r16
 314:	00 8c       	ldd	r0, Z+24	; 0x18
 316:	07 00       	.word	0x0007	; ????
	...
 324:	00 00       	nop
 326:	00 03       	mulsu	r16, r16
 328:	00 92 20 02 	sts	0x0220, r0	; 0x800220 <__bss_end+0x119>
	...
 334:	03 00       	.word	0x0003	; ????
 336:	92 20       	and	r9, r2
 338:	03 00       	.word	0x0003	; ????
 33a:	00 00       	nop
 33c:	00 00       	nop
 33e:	00 00       	nop
 340:	00 03       	mulsu	r16, r16
 342:	00 92 20 04 	sts	0x0420, r0	; 0x800420 <__bss_end+0x319>
	...
 34e:	03 00       	.word	0x0003	; ????
 350:	92 20       	and	r9, r2
 352:	06 00       	.word	0x0006	; ????
 354:	00 00       	nop
 356:	00 00       	nop
 358:	00 00       	nop
 35a:	00 02       	muls	r16, r16
 35c:	00 8c       	ldd	r0, Z+24	; 0x18
 35e:	06 00       	.word	0x0006	; ????
	...
 36c:	00 00       	nop
 36e:	00 03       	mulsu	r16, r16
 370:	00 92 20 02 	sts	0x0220, r0	; 0x800220 <__bss_end+0x119>
	...
 37c:	03 00       	.word	0x0003	; ????
 37e:	92 20       	and	r9, r2
 380:	03 00       	.word	0x0003	; ????
 382:	00 00       	nop
 384:	00 00       	nop
 386:	00 00       	nop
 388:	00 03       	mulsu	r16, r16
 38a:	00 92 20 04 	sts	0x0420, r0	; 0x800420 <__bss_end+0x319>
	...
 396:	02 00       	.word	0x0002	; ????
 398:	8c 04       	cpc	r8, r12
	...
 3aa:	03 00       	.word	0x0003	; ????
 3ac:	92 20       	and	r9, r2
 3ae:	02 00       	.word	0x0002	; ????
 3b0:	00 00       	nop
 3b2:	00 00       	nop
 3b4:	00 00       	nop
 3b6:	00 03       	mulsu	r16, r16
 3b8:	00 92 20 03 	sts	0x0320, r0	; 0x800320 <__bss_end+0x219>
	...
 3c4:	03 00       	.word	0x0003	; ????
 3c6:	92 20       	and	r9, r2
 3c8:	04 00       	.word	0x0004	; ????
 3ca:	00 00       	nop
 3cc:	00 00       	nop
 3ce:	00 00       	nop
 3d0:	00 02       	muls	r16, r16
 3d2:	00 8c       	ldd	r0, Z+24	; 0x18
 3d4:	04 00       	.word	0x0004	; ????
 3d6:	00 00       	nop
 3d8:	00 00       	nop
 3da:	00 00       	nop
	...

Disassembly of section .debug_ranges:

00000000 <.debug_ranges>:
   0:	01 00       	.word	0x0001	; ????
   2:	00 00       	nop
   4:	01 00       	.word	0x0001	; ????
   6:	00 00       	nop
   8:	a8 00       	.word	0x00a8	; ????
   a:	00 00       	nop
   c:	c0 00       	.word	0x00c0	; ????
   e:	00 00       	nop
  10:	01 00       	.word	0x0001	; ????
  12:	00 00       	nop
  14:	01 00       	.word	0x0001	; ????
  16:	00 00       	nop
  18:	c0 00       	.word	0x00c0	; ????
  1a:	00 00       	nop
  1c:	2e 01       	movw	r4, r28
	...
  26:	00 00       	nop
  28:	01 00       	.word	0x0001	; ????
  2a:	00 00       	nop
  2c:	01 00       	.word	0x0001	; ????
  2e:	00 00       	nop
  30:	2e 01       	movw	r4, r28
  32:	00 00       	nop
  34:	f2 01       	movw	r30, r4
  36:	00 00       	nop
  38:	01 00       	.word	0x0001	; ????
  3a:	00 00       	nop
  3c:	01 00       	.word	0x0001	; ????
  3e:	00 00       	nop
  40:	01 00       	.word	0x0001	; ????
  42:	00 00       	nop
  44:	01 00       	.word	0x0001	; ????
  46:	00 00       	nop
  48:	f2 01       	movw	r30, r4
  4a:	00 00       	nop
  4c:	64 02       	muls	r22, r20
  4e:	00 00       	nop
  50:	64 02       	muls	r22, r20
  52:	00 00       	nop
  54:	76 02       	muls	r23, r22
	...
  5e:	00 00       	nop
  60:	01 00       	.word	0x0001	; ????
  62:	00 00       	nop
  64:	01 00       	.word	0x0001	; ????
  66:	00 00       	nop
  68:	01 00       	.word	0x0001	; ????
  6a:	00 00       	nop
  6c:	01 00       	.word	0x0001	; ????
  6e:	00 00       	nop
  70:	01 00       	.word	0x0001	; ????
  72:	00 00       	nop
  74:	01 00       	.word	0x0001	; ????
  76:	00 00       	nop
  78:	01 00       	.word	0x0001	; ????
  7a:	00 00       	nop
  7c:	01 00       	.word	0x0001	; ????
  7e:	00 00       	nop
  80:	76 02       	muls	r23, r22
  82:	00 00       	nop
  84:	7a 02       	muls	r23, r26
  86:	00 00       	nop
  88:	01 00       	.word	0x0001	; ????
  8a:	00 00       	nop
  8c:	01 00       	.word	0x0001	; ????
	...
